(dp1
S'output'
p2
S"<type 'exceptions.NameError'> name 'form' is not defined"
p3
sS'layer'
p4
S'/Users/Joshua/Git Repositories/CMPS 183/web2py/applications/Discuss/views/default/newdiscussion.html'
p5
sS'code'
p6
S'response.write(\'<!DOCTYPE html>\\n\\n<head>\\n    <meta charset="utf-8">\\n    <!-- www.phpied.com/conditional-comments-block-downloads/ -->\\n    <!-- Always force latest IE rendering engine\\n         (even in intranet) & Chrome Frame\\n         Remove this if you use the .htaccess -->\\n    <meta http-equiv="X-UA-Compatible" content="IE=edge\', escape=False)\nresponse.write(not request.is_local and \',chrome=1\' or \'\')\nresponse.write(\'">\\n    <!--  Mobile Viewport Fix\\n          j.mp/mobileviewport & davidbcalhoun.com/2010/viewport-metatag\\n          device-width: Occupy full width of the screen in its current orientation\\n          initial-scale = 1.0 retains dimensions instead of zooming out if page height > device height\\n          user-scalable = yes allows the user to zoom in -->\\n    <meta name="viewport" content="width=device-width, initial-scale=1.0">\\n    <title>\', escape=False)\nresponse.write(response.title or request.application)\nresponse.write(\'</title>\\n    <!-- http://dev.w3.org/html5/markup/meta.name.html -->\\n    <meta name="application-name" content="\', escape=False)\nresponse.write(request.application)\nresponse.write(\'">\\n    <!-- Speaking of Google, don\\\'t forget to set your site up:\\n         http://google.com/webmasters -->\\n    <meta name="google-site-verification" content="">\\n    <!-- include stylesheets -->\\n    <link rel="stylesheet" href="\', escape=False)\nresponse.write(URL(\'static\',\'css/bootstrap.min.css\'))\nresponse.write(\'"/>\\n    <link rel="stylesheet" href="\', escape=False)\nresponse.write(URL(\'static\',\'css/bootstrap-theme.min.css\'))\nresponse.write(\'"/>\\n    <link rel="stylesheet" href="\', escape=False)\nresponse.write(URL(\'static\',\'css/web2py-bootstrap3.css\'))\nresponse.write(\'"/>\\n    <link rel="stylesheet" href="\', escape=False)\nresponse.write(URL(\'static\',\'css/myapp.css\'))\nresponse.write(\'"/>\\n    <link rel="stylesheet" href="\', escape=False)\nresponse.write(URL(\'static\', \'font-awesome-4.4.0/css/font-awesome.min.css\'))\nresponse.write(\'"/>\\n    <link rel="shortcut icon" href="\', escape=False)\nresponse.write(URL(\'static\',\'images/favicon.ico\'))\nresponse.write(\'" type="image/x-icon">\\n    <link rel="apple-touch-icon" href="\', escape=False)\nresponse.write(URL(\'static\',\'images/favicon.png\'))\nresponse.write(\'">\\n\\t<link href=\\\'https://fonts.googleapis.com/css?family=Lato:400,300,100,700,900,100italic,300italic,400italic,700italic,900italic|Open+Sans:400,300,600,700,800,300italic,400italic,600italic,700italic,800italic|Montserrat\\\' rel=\\\'stylesheet\\\' type=\\\'text/css\\\'>    <!-- All JavaScript at the bottom, except for Modernizr which enables\\n         HTML5 elements & feature detects -->\\n    <script src="\', escape=False)\nresponse.write(URL(\'static\',\'js/modernizr-2.8.3.min.js\'))\nresponse.write(\'"></script>\\n    <!--[if lt IE 9]>\\n        <script src="\', escape=False)\nresponse.write(URL(\'static\',\'js/respond-1.4.2.min.js\'))\nresponse.write(\'"></script>\\n        <![endif]-->\\n    <!-- Favicons -->\\n    \', escape=False)\nresponse.write(\'<script type="text/javascript"><!--\\n    // These variables are used by the web2py_ajax_init function in web2py_ajax.js (which is loaded below).\\n    var w2p_ajax_confirm_message = "\', escape=False)\nresponse.write(T(\'Are you sure you want to delete this object?\'))\nresponse.write(\'";\\n    var w2p_ajax_disable_with_message = "\', escape=False)\nresponse.write(T(\'Working...\'))\nresponse.write(\'";\\n    var w2p_ajax_date_format = "\', escape=False)\nresponse.write(T(\'%Y-%m-%d\'))\nresponse.write(\'";\\n    var w2p_ajax_datetime_format = "\', escape=False)\nresponse.write(T(\'%Y-%m-%d %H:%M:%S\'))\nresponse.write(\'";\\n    var ajax_error_500 = \\\'\', escape=False)\nresponse.write(T.M(\'An error occured, please [[reload %s]] the page\') % URL(args=request.args, vars=request.get_vars))\nresponse.write("\'\\n    //--></script>\\n", escape=False)\nresponse.files.insert(0,URL(\'static\',\'js/jquery.js\'))\nresponse.files.insert(1,URL(\'static\',\'css/calendar.css\'))\nresponse.files.insert(2,URL(\'static\',\'js/calendar.js\'))\nresponse.files.insert(3,URL(\'static\',\'js/web2py.js\'))\nresponse.include_meta()\nresponse.include_files()\nresponse.write(\'\\n\', escape=False)\nresponse.write(\' <!-- this includes jquery.js, calendar.js/.css and web2py.js -->\\n</head>\\n<body>\\n\\t<div id="wrap">\\n\\t\\t<div id="new-discussion-target" class="content-wrapper"></div>\\n\\t</div>\\n\\t<footer><div class="orange-bar"></div></footer>\\n\\t<!-- The javascript =============================== -->\\n    <script src="\', escape=False)\nresponse.write(URL(\'static\',\'js/bootstrap.min.js\'))\nresponse.write(\'"></script>\\n    <script src="\', escape=False)\nresponse.write(URL(\'static\',\'js/web2py-bootstrap3.js\'))\nresponse.write(\'"></script>\\n    <script src="\', escape=False)\nresponse.write(URL(\'static\', \'js/ractive.min.js\'))\nresponse.write(\'"></script>\\n</body>\\n\\n<script id="new-discussion-template" type="text/ractive">\\n\\t<nav id="index-nav" class="flex-row space-between full-width center-aligned">\\n\\t\\t\', escape=False)\nresponse.write(A(\'Discuss\', _class=\'title\', _href=URL(\'default\', \'index\')))\nresponse.write(\'\\n\\t\\t<div class="nav-buttons flex-row space-around">\\n\\t\\t\', escape=False)\nif not auth.is_logged_in():\n    response.write(\'\\n\\t\\t\\t\', escape=False)\n    response.write(A(\'Get Started\', _class=\'btn\', _id=\'signup-button\', _href=URL(\'default\', \'user\', args=[\'register\'], vars=dict(_next=URL(args=request.args, vars=request.vars)))))\n    response.write(\'\\n            \', escape=False)\n    response.write(A(\'Sign In\', _class=\'btn\', _id=\'signin-button\', _href=URL(\'default\', \'user\', args=[\'login\'], vars=dict(_next=URL(args=request.args, vars=request.vars)))))\n    response.write(\'\\n        \', escape=False)\n    pass\nresponse.write(\'\\n        \', escape=False)\nif auth.is_logged_in():\n    response.write(\'\\n            \', escape=False)\n    response.write(A(\'My Profile\', _class=\'btn\', _id=\'myprofile-button\', _href=URL(\'default\', \'profile\')))\n    response.write(\'\\n            \', escape=False)\n    response.write(A(\'Sign Out\', _class=\'btn\', _id=\'signout-button\', _href=URL(\'default\', \'user\', args=[\'logout\'], vars=dict(_next=URL(\'default\')))))\n    response.write(\'\\n        \', escape=False)\n    pass\nresponse.write(\'\\n        </div>\\n\\t</nav>\\n\\t<main>\\n\\t\\t<div id="new-discussion-form-container" class="flex-column center-aligned form-container">\\n\\t\\t\\t<div id="new-discussion-greeting" class="form-greeting">\\n\\t\\t\\t\\t<h1>New Discussion</h1>\\n\\t\\t\\t</div>\\n\\t\\t\\t\', escape=False)\nresponse.write(form.custom.begin)\nresponse.write(\'\\n\\t\\t\\t<div class="flex-column center-aligned form-column">\\n\\t\\t\\t\\t<div class="flex-column form-column full-width" id="register-form">\\n\\t\\t\\t\\t\\t<div class="flex-column form-row space-between center-aligned" id="discussionname-row">\\n\\t\\t\\t\\t\\t\\t<h4>What do you want to discuss?</h4>\\n\\t\\t\\t\\t\\t\\t<input type="text" class="text-widget custom-form form-control" id="form-discussionname" name="new_discussion_name" value="{% discussion_name %}" maxlength="25" data-boardid=""/>\\n\\t\\t\\t\\t\\t</div>\\n\\t\\t\\t\\t\\t<div class="flex-column form-row space-between center-aligned" id="discussiondescription-row">\\n\\t\\t\\t\\t\\t\\t<h4>Short description of your dicsussion</h4>\\n\\t\\t\\t\\t\\t\\t<textarea name="new_discussion_description" class="new_discussion_description form-control" value="{% discussion_description %}" cols="40" rows="4" maxlength="130"></textarea>\\n\\t\\t\\t\\t\\t</div>\\n\\t\\t\\t\\t\\t<div class="flex-column form-row space-between center-aligned" id="discussionlocation-row">\\n\\t\\t\\t\\t\\t\\t<h4>City <i>(Optional)</i></h4>\\n\\t\\t\\t\\t\\t\\t<input type="text" class="text-widget custom-form form-control" id="form-discussionlocation" name="new_discussion_location" value="{% discussion_location %}" maxlength="50" data-boardid=""/>\\n\\t\\t\\t\\t\\t</div>\\n\\t\\t\\t\\t\\t<div class="flex-column form-row space-between center-aligned" id="bannerphotourl-row">\\n\\t\\t\\t\\t\\t\\t<h4>Banner Photo URL</h4>\\n\\t\\t\\t\\t\\t\\t<input type="text" class="text-widget custom-form form-control" id="form-discussionlocation" name="new_discussion_location" value="{% banner_photo_url %}" data-boardid=""/>\\n\\t\\t\\t\\t\\t</div>\\n\\t\\t\\t\\t\\t<button class="btn blue-button" id="submit-button" on-click="submit-button">Submit</button>\\n\\t\\t\\t\\t</div>\\n\\t\\t\\t</div>\\n\\t\\t\\t\', escape=False)\nresponse.write(form.custom.end)\nresponse.write(\'\\n\\t\\t\\t</div>\\n\\t</main>\\n</script>\\n\\n<script>\\n\\t$(function() {\\n\\t\\t// Ractive object\\n\\t\\tvar BODY = new Ractive({\\n\\t\\t\\tel: \\\'#new-discussion-target\\\',\\n\\t\\t\\ttemplate: \\\'#new-discussion-template\\\',\\n\\t\\t\\tdelimiters: [\\\'{%\\\', \\\'%}\\\'],\\n\\t\\t\\ttripleDelimiters: [\\\'{%%\\\', \\\'%%}\\\'],\\n\\t\\t\\tdata: {\\n\\t\\t\\t\\tdiscussion_name: "",\\n\\t\\t\\t\\tdiscussion_description: "",\\n\\t\\t\\t\\tdiscussion_location: "",\\n\\t\\t\\t\\tbanner_photo_url: "http://www.cocc.edu/uploadedImages/Departments_/ITS/Computer_Labs/20141104_133038.jpg"\\n\\t\\t\\t\\tdiscussion_id: "\', escape=False)\nresponse.write(discussion_id)\nresponse.write(\'"\\n\\t\\t\\t}\\n\\t\\t});\\n\\n\\t\\t//To retrieve the time in UTC string format\\n\\t\\tfunction get_UTC_String() {\\n\\t\\t\\tvar date = new Date();\\n\\t\\t\\treturn date.toUTCString();\\n\\t\\t}\\n\\n\\t\\t//Makes the date more readable and in user\\\'s time zone.\\n\\t\\tfunction get_pretty_time() {\\n\\t\\t\\tvar date = new Date();\\n\\t\\t\\tvar full_date = date.toString();\\n\\t\\t\\tvar split_date = full_date.split(" ");\\n\\t\\t\\tvar split_time = split_date[4].split(":");\\n\\t\\t\\treturn split_date[1] + " " + split_date[2] + " " + split_time[0] + ":" + split_time[1];\\n\\t\\t}\\n\\n\\n\\t\\tfunction send() {\\n\\t\\t\\t$.ajax("\', escape=False)\nresponse.write(URL(\'default\', \'add_discussion\', user_signature=True))\nresponse.write(\'",\\n\\t\\t\\t\\t\\t{\\n\\t\\t\\t\\t\\t\\tdata: {\\n\\t\\t\\t\\t\\t\\t\\tdiscussion_name: BODY.get(\\\'discussion_name\\\'), //request.vars.discussion_name\\n\\t\\t\\t\\t\\t\\t\\tdiscussion_description: BODY.get(\\\'discussion_description\\\'), //request.vars.discussion_description\\n\\t\\t\\t\\t\\t\\t\\tdiscussion_location: BODY.get(\\\'discussion_location\\\'), //request.vars.discussion_location\\n\\t\\t\\t\\t\\t\\t\\tbanner_photo_url: BODY.get(\\\'banner_photo_url\\\'), //request.vars.banner_photo_url\\n\\t\\t\\t\\t\\t\\t\\tdiscussion_id: BODY.get(\\\'discussion_id\\\'), //request.vars.discussion_id\\n\\t\\t\\t\\t\\t\\t\\tdiscussion_last_updated: get_UTC_String(), //request.vars.discussion_last_updated\\n\\t\\t\\t\\t\\t\\t\\tdiscussion_pretty_updated: get_pretty_time() //request.vars.discussion_pretty_updated\\n\\t\\t\\t\\t\\t\\t},\\n\\t\\t\\t\\t\\t\\tmethod: \\\'POST\\\',\\n\\t\\t\\t\\t\\t\\tsuccess: function() {},\\n\\t\\t\\t\\t\\t\\terror: function() {}\\n\\t\\t\\t\\t\\t}\\n\\t\\t\\t);\\n\\t\\t}\\n\\n\\t\\tBODY.on("submit-button", function(e) {\\n            send();\\n        });\\n\\n\\t});\\n</script>\\n\', escape=False)'
p7
sS'snapshot'
p8
(dp9
S'exception'
p10
(dp11
S'__hash__'
p12
S"<method-wrapper '__hash__' of exceptions.NameError object>"
p13
sS'__setattr__'
p14
S"<method-wrapper '__setattr__' of exceptions.NameError object>"
p15
sS'__reduce_ex__'
p16
S'<built-in method __reduce_ex__ of exceptions.NameError object>'
p17
sS'__getslice__'
p18
S"<method-wrapper '__getslice__' of exceptions.NameError object>"
p19
sS'__getitem__'
p20
S"<method-wrapper '__getitem__' of exceptions.NameError object>"
p21
sS'__setstate__'
p22
S'<built-in method __setstate__ of exceptions.NameError object>'
p23
sS'args'
p24
S'("name \'form\' is not defined",)'
p25
sS'__reduce__'
p26
S'<built-in method __reduce__ of exceptions.NameError object>'
p27
sS'__str__'
p28
S"<method-wrapper '__str__' of exceptions.NameError object>"
p29
sS'__format__'
p30
S'<built-in method __format__ of exceptions.NameError object>'
p31
sS'__getattribute__'
p32
S"<method-wrapper '__getattribute__' of exceptions.NameError object>"
p33
sS'__class__'
p34
S"<type 'exceptions.NameError'>"
p35
sS'__unicode__'
p36
S'<built-in method __unicode__ of exceptions.NameError object>'
p37
sS'__delattr__'
p38
S"<method-wrapper '__delattr__' of exceptions.NameError object>"
p39
sS'__subclasshook__'
p40
S'<built-in method __subclasshook__ of type object>'
p41
sS'__repr__'
p42
S"<method-wrapper '__repr__' of exceptions.NameError object>"
p43
sS'__dict__'
p44
S'{}'
p45
sS'__sizeof__'
p46
S'<built-in method __sizeof__ of exceptions.NameError object>'
p47
sS'__doc__'
p48
S"'Name not found globally.'"
p49
sS'__init__'
p50
S"<method-wrapper '__init__' of exceptions.NameError object>"
p51
sS'__new__'
p52
S'<built-in method __new__ of type object>'
p53
ssS'evalue'
p54
S"name 'form' is not defined"
p55
sS'request'
p56
cgluon.html
XML_unpickle
p57
(S's\xce\xe4\x00\x00<div><table><tr><td style="font-weight:bold;vertical-align:top;">ajax</td><td style="vertical-align:top;">:</td><td><div>False</div></td></tr><tr><td style="font-weight:bold;vertical-align:top;">application</td><td style="vertical-align:top;">:</td><td><div>Discuss</div></td></tr><tr><td style="font-weight:bold;vertical-align:top;">args</td><td style="vertical-align:top;">:</td><td><div><table></table></div></td></tr><tr><td style="font-weight:bold;vertical-align:top;">cid</td><td style="vertical-align:top;">:</td><td><div>None</div></td></tr><tr><td style="font-weight:bold;vertical-align:top;">client</td><td style="vertical-align:top;">:</td><td><div>127.0.0.1</div></td></tr><tr><td style="font-weight:bold;vertical-align:top;">controller</td><td style="vertical-align:top;">:</td><td><div>default</div></td></tr><tr><td style="font-weight:bold;vertical-align:top;">cookies</td><td style="vertical-align:top;">:</td><td><div><table><tr><td style="font-weight:bold;vertical-align:top;">session_id_1stassignment</td><td style="vertical-align:top;">:</td><td><div>127.0.0.1-936d3fc7-5f88-49da-b698-4cb050fec2ec<table><tr><td style="font-weight:bold;vertical-align:top;">comment</td><td style="vertical-align:top;">:</td><td><div></div></td></tr><tr><td style="font-weight:bold;vertical-align:top;">domain</td><td style="vertical-align:top;">:</td><td><div></div></td></tr><tr><td style="font-weight:bold;vertical-align:top;">expires</td><td style="vertical-align:top;">:</td><td><div></div></td></tr><tr><td style="font-weight:bold;vertical-align:top;">httponly</td><td style="vertical-align:top;">:</td><td><div></div></td></tr><tr><td style="font-weight:bold;vertical-align:top;">max-age</td><td style="vertical-align:top;">:</td><td><div></div></td></tr><tr><td style="font-weight:bold;vertical-align:top;">path</td><td style="vertical-align:top;">:</td><td><div></div></td></tr><tr><td style="font-weight:bold;vertical-align:top;">secure</td><td style="vertical-align:top;">:</td><td><div></div></td></tr><tr><td style="font-weight:bold;vertical-align:top;">version</td><td style="vertical-align:top;">:</td><td><div></div></td></tr></table></div></td></tr><tr><td style="font-weight:bold;vertical-align:top;">session_id_2ndassignment</td><td style="vertical-align:top;">:</td><td><div>127.0.0.1-a2751377-8563-444f-b8d9-7dadab44aa60<table><tr><td style="font-weight:bold;vertical-align:top;">comment</td><td style="vertical-align:top;">:</td><td><div></div></td></tr><tr><td style="font-weight:bold;vertical-align:top;">domain</td><td style="vertical-align:top;">:</td><td><div></div></td></tr><tr><td style="font-weight:bold;vertical-align:top;">expires</td><td style="vertical-align:top;">:</td><td><div></div></td></tr><tr><td style="font-weight:bold;vertical-align:top;">httponly</td><td style="vertical-align:top;">:</td><td><div></div></td></tr><tr><td style="font-weight:bold;vertical-align:top;">max-age</td><td style="vertical-align:top;">:</td><td><div></div></td></tr><tr><td style="font-weight:bold;vertical-align:top;">path</td><td style="vertical-align:top;">:</td><td><div></div></td></tr><tr><td style="font-weight:bold;vertical-align:top;">secure</td><td style="vertical-align:top;">:</td><td><div></div></td></tr><tr><td style="font-weight:bold;vertical-align:top;">version</td><td style="vertical-align:top;">:</td><td><div></div></td></tr></table></div></td></tr><tr><td style="font-weight:bold;vertical-align:top;">session_id_5thassignment</td><td style="vertical-align:top;">:</td><td><div>127.0.0.1-13c8535a-aab0-44a3-9755-deeb41ffa54e<table><tr><td style="font-weight:bold;vertical-align:top;">comment</td><td style="vertical-align:top;">:</td><td><div></div></td></tr><tr><td style="font-weight:bold;vertical-align:top;">domain</td><td style="vertical-align:top;">:</td><td><div></div></td></tr><tr><td style="font-weight:bold;vertical-align:top;">expires</td><td style="vertical-align:top;">:</td><td><div></div></td></tr><tr><td style="font-weight:bold;vertical-align:top;">httponly</td><td style="vertical-align:top;">:</td><td><div></div></td></tr><tr><td style="font-weight:bold;vertical-align:top;">max-age</td><td style="vertical-align:top;">:</td><td><div></div></td></tr><tr><td style="font-weight:bold;vertical-align:top;">path</td><td style="vertical-align:top;">:</td><td><div></div></td></tr><tr><td style="font-weight:bold;vertical-align:top;">secure</td><td style="vertical-align:top;">:</td><td><div></div></td></tr><tr><td style="font-weight:bold;vertical-align:top;">version</td><td style="vertical-align:top;">:</td><td><div></div></td></tr></table></div></td></tr><tr><td style="font-weight:bold;vertical-align:top;">session_id_5thassignment2</td><td style="vertical-align:top;">:</td><td><div>127.0.0.1-2ff56ed7-3436-469f-94c7-fc119ff9506d<table><tr><td style="font-weight:bold;vertical-align:top;">comment</td><td style="vertical-align:top;">:</td><td><div></div></td></tr><tr><td style="font-weight:bold;vertical-align:top;">domain</td><td style="vertical-align:top;">:</td><td><div></div></td></tr><tr><td style="font-weight:bold;vertical-align:top;">expires</td><td style="vertical-align:top;">:</td><td><div></div></td></tr><tr><td style="font-weight:bold;vertical-align:top;">httponly</td><td style="vertical-align:top;">:</td><td><div></div></td></tr><tr><td style="font-weight:bold;vertical-align:top;">max-age</td><td style="vertical-align:top;">:</td><td><div></div></td></tr><tr><td style="font-weight:bold;vertical-align:top;">path</td><td style="vertical-align:top;">:</td><td><div></div></td></tr><tr><td style="font-weight:bold;vertical-align:top;">secure</td><td style="vertical-align:top;">:</td><td><div></div></td></tr><tr><td style="font-weight:bold;vertical-align:top;">version</td><td style="vertical-align:top;">:</td><td><div></div></td></tr></table></div></td></tr><tr><td style="font-weight:bold;vertical-align:top;">session_id_admin</td><td style="vertical-align:top;">:</td><td><div>127.0.0.1-db9aa010-56f4-4ae7-b5f8-a75bd3695a44<table><tr><td style="font-weight:bold;vertical-align:top;">comment</td><td style="vertical-align:top;">:</td><td><div></div></td></tr><tr><td style="font-weight:bold;vertical-align:top;">domain</td><td style="vertical-align:top;">:</td><td><div></div></td></tr><tr><td style="font-weight:bold;vertical-align:top;">expires</td><td style="vertical-align:top;">:</td><td><div></div></td></tr><tr><td style="font-weight:bold;vertical-align:top;">httponly</td><td style="vertical-align:top;">:</td><td><div></div></td></tr><tr><td style="font-weight:bold;vertical-align:top;">max-age</td><td style="vertical-align:top;">:</td><td><div></div></td></tr><tr><td style="font-weight:bold;vertical-align:top;">path</td><td style="vertical-align:top;">:</td><td><div></div></td></tr><tr><td style="font-weight:bold;vertical-align:top;">secure</td><td style="vertical-align:top;">:</td><td><div></div></td></tr><tr><td style="font-weight:bold;vertical-align:top;">version</td><td style="vertical-align:top;">:</td><td><div></div></td></tr></table></div></td></tr><tr><td style="font-weight:bold;vertical-align:top;">session_id_discuss</td><td style="vertical-align:top;">:</td><td><div>127.0.0.1-11b14645-ec0c-450e-8d3a-a63501691c54<table><tr><td style="font-weight:bold;vertical-align:top;">comment</td><td style="vertical-align:top;">:</td><td><div></div></td></tr><tr><td style="font-weight:bold;vertical-align:top;">domain</td><td style="vertical-align:top;">:</td><td><div></div></td></tr><tr><td style="font-weight:bold;vertical-align:top;">expires</td><td style="vertical-align:top;">:</td><td><div></div></td></tr><tr><td style="font-weight:bold;vertical-align:top;">httponly</td><td style="vertical-align:top;">:</td><td><div></div></td></tr><tr><td style="font-weight:bold;vertical-align:top;">max-age</td><td style="vertical-align:top;">:</td><td><div></div></td></tr><tr><td style="font-weight:bold;vertical-align:top;">path</td><td style="vertical-align:top;">:</td><td><div></div></td></tr><tr><td style="font-weight:bold;vertical-align:top;">secure</td><td style="vertical-align:top;">:</td><td><div></div></td></tr><tr><td style="font-weight:bold;vertical-align:top;">version</td><td style="vertical-align:top;">:</td><td><div></div></td></tr></table></div></td></tr><tr><td style="font-weight:bold;vertical-align:top;">session_id_discuss2</td><td style="vertical-align:top;">:</td><td><div>127.0.0.1-d6290b67-8961-4e24-90ef-a21fd178a7c6<table><tr><td style="font-weight:bold;vertical-align:top;">comment</td><td style="vertical-align:top;">:</td><td><div></div></td></tr><tr><td style="font-weight:bold;vertical-align:top;">domain</td><td style="vertical-align:top;">:</td><td><div></div></td></tr><tr><td style="font-weight:bold;vertical-align:top;">expires</td><td style="vertical-align:top;">:</td><td><div></div></td></tr><tr><td style="font-weight:bold;vertical-align:top;">httponly</td><td style="vertical-align:top;">:</td><td><div></div></td></tr><tr><td style="font-weight:bold;vertical-align:top;">max-age</td><td style="vertical-align:top;">:</td><td><div></div></td></tr><tr><td style="font-weight:bold;vertical-align:top;">path</td><td style="vertical-align:top;">:</td><td><div></div></td></tr><tr><td style="font-weight:bold;vertical-align:top;">secure</td><td style="vertical-align:top;">:</td><td><div></div></td></tr><tr><td style="font-weight:bold;vertical-align:top;">version</td><td style="vertical-align:top;">:</td><td><div></div></td></tr></table></div></td></tr><tr><td style="font-weight:bold;vertical-align:top;">session_id_firstreview</td><td style="vertical-align:top;">:</td><td><div>127.0.0.1-3be33172-ae50-4c37-b7c4-cfce0b4fcb3a<table><tr><td style="font-weight:bold;vertical-align:top;">comment</td><td style="vertical-align:top;">:</td><td><div></div></td></tr><tr><td style="font-weight:bold;vertical-align:top;">domain</td><td style="vertical-align:top;">:</td><td><div></div></td></tr><tr><td style="font-weight:bold;vertical-align:top;">expires</td><td style="vertical-align:top;">:</td><td><div></div></td></tr><tr><td style="font-weight:bold;vertical-align:top;">httponly</td><td style="vertical-align:top;">:</td><td><div></div></td></tr><tr><td style="font-weight:bold;vertical-align:top;">max-age</td><td style="vertical-align:top;">:</td><td><div></div></td></tr><tr><td style="font-weight:bold;vertical-align:top;">path</td><td style="vertical-align:top;">:</td><td><div></div></td></tr><tr><td style="font-weight:bold;vertical-align:top;">secure</td><td style="vertical-align:top;">:</td><td><div></div></td></tr><tr><td style="font-weight:bold;vertical-align:top;">version</td><td style="vertical-align:top;">:</td><td><div></div></td></tr></table></div></td></tr><tr><td style="font-weight:bold;vertical-align:top;">session_id_hw2review1</td><td style="vertical-align:top;">:</td><td><div>127.0.0.1-a12de2d3-2d78-40ea-8437-65efe1ad9496<table><tr><td style="font-weight:bold;vertical-align:top;">comment</td><td style="vertical-align:top;">:</td><td><div></div></td></tr><tr><td style="font-weight:bold;vertical-align:top;">domain</td><td style="vertical-align:top;">:</td><td><div></div></td></tr><tr><td style="font-weight:bold;vertical-align:top;">expires</td><td style="vertical-align:top;">:</td><td><div></div></td></tr><tr><td style="font-weight:bold;vertical-align:top;">httponly</td><td style="vertical-align:top;">:</td><td><div></div></td></tr><tr><td style="font-weight:bold;vertical-align:top;">max-age</td><td style="vertical-align:top;">:</td><td><div></div></td></tr><tr><td style="font-weight:bold;vertical-align:top;">path</td><td style="vertical-align:top;">:</td><td><div></div></td></tr><tr><td style="font-weight:bold;vertical-align:top;">secure</td><td style="vertical-align:top;">:</td><td><div></div></td></tr><tr><td style="font-weight:bold;vertical-align:top;">version</td><td style="vertical-align:top;">:</td><td><div></div></td></tr></table></div></td></tr><tr><td style="font-weight:bold;vertical-align:top;">session_id_hw2review2</td><td style="vertical-align:top;">:</td><td><div>127.0.0.1-0a942478-0d37-4205-a92c-672e9799a858<table><tr><td style="font-weight:bold;vertical-align:top;">comment</td><td style="vertical-align:top;">:</td><td><div></div></td></tr><tr><td style="font-weight:bold;vertical-align:top;">domain</td><td style="vertical-align:top;">:</td><td><div></div></td></tr><tr><td style="font-weight:bold;vertical-align:top;">expires</td><td style="vertical-align:top;">:</td><td><div></div></td></tr><tr><td style="font-weight:bold;vertical-align:top;">httponly</td><td style="vertical-align:top;">:</td><td><div></div></td></tr><tr><td style="font-weight:bold;vertical-align:top;">max-age</td><td style="vertical-align:top;">:</td><td><div></div></td></tr><tr><td style="font-weight:bold;vertical-align:top;">path</td><td style="vertical-align:top;">:</td><td><div></div></td></tr><tr><td style="font-weight:bold;vertical-align:top;">secure</td><td style="vertical-align:top;">:</td><td><div></div></td></tr><tr><td style="font-weight:bold;vertical-align:top;">version</td><td style="vertical-align:top;">:</td><td><div></div></td></tr></table></div></td></tr><tr><td style="font-weight:bold;vertical-align:top;">session_id_hw2review3</td><td style="vertical-align:top;">:</td><td><div>127.0.0.1-97354fc1-cdc4-4c33-8485-00742e528dc3<table><tr><td style="font-weight:bold;vertical-align:top;">comment</td><td style="vertical-align:top;">:</td><td><div></div></td></tr><tr><td style="font-weight:bold;vertical-align:top;">domain</td><td style="vertical-align:top;">:</td><td><div></div></td></tr><tr><td style="font-weight:bold;vertical-align:top;">expires</td><td style="vertical-align:top;">:</td><td><div></div></td></tr><tr><td style="font-weight:bold;vertical-align:top;">httponly</td><td style="vertical-align:top;">:</td><td><div></div></td></tr><tr><td style="font-weight:bold;vertical-align:top;">max-age</td><td style="vertical-align:top;">:</td><td><div></div></td></tr><tr><td style="font-weight:bold;vertical-align:top;">path</td><td style="vertical-align:top;">:</td><td><div></div></td></tr><tr><td style="font-weight:bold;vertical-align:top;">secure</td><td style="vertical-align:top;">:</td><td><div></div></td></tr><tr><td style="font-weight:bold;vertical-align:top;">version</td><td style="vertical-align:top;">:</td><td><div></div></td></tr></table></div></td></tr><tr><td style="font-weight:bold;vertical-align:top;">session_id_hw2review4</td><td style="vertical-align:top;">:</td><td><div>127.0.0.1-2f0cee36-c3a2-44bd-9d53-93fd1bbd536b<table><tr><td style="font-weight:bold;vertical-align:top;">comment</td><td style="vertical-align:top;">:</td><td><div></div></td></tr><tr><td style="font-weight:bold;vertical-align:top;">domain</td><td style="vertical-align:top;">:</td><td><div></div></td></tr><tr><td style="font-weight:bold;vertical-align:top;">expires</td><td style="vertical-align:top;">:</td><td><div></div></td></tr><tr><td style="font-weight:bold;vertical-align:top;">httponly</td><td style="vertical-align:top;">:</td><td><div></div></td></tr><tr><td style="font-weight:bold;vertical-align:top;">max-age</td><td style="vertical-align:top;">:</td><td><div></div></td></tr><tr><td style="font-weight:bold;vertical-align:top;">path</td><td style="vertical-align:top;">:</td><td><div></div></td></tr><tr><td style="font-weight:bold;vertical-align:top;">secure</td><td style="vertical-align:top;">:</td><td><div></div></td></tr><tr><td style="font-weight:bold;vertical-align:top;">version</td><td style="vertical-align:top;">:</td><td><div></div></td></tr></table></div></td></tr><tr><td style="font-weight:bold;vertical-align:top;">session_id_hw2review5</td><td style="vertical-align:top;">:</td><td><div>127.0.0.1-5d1f3ba1-28a1-43f3-a292-67f87f324052<table><tr><td style="font-weight:bold;vertical-align:top;">comment</td><td style="vertical-align:top;">:</td><td><div></div></td></tr><tr><td style="font-weight:bold;vertical-align:top;">domain</td><td style="vertical-align:top;">:</td><td><div></div></td></tr><tr><td style="font-weight:bold;vertical-align:top;">expires</td><td style="vertical-align:top;">:</td><td><div></div></td></tr><tr><td style="font-weight:bold;vertical-align:top;">httponly</td><td style="vertical-align:top;">:</td><td><div></div></td></tr><tr><td style="font-weight:bold;vertical-align:top;">max-age</td><td style="vertical-align:top;">:</td><td><div></div></td></tr><tr><td style="font-weight:bold;vertical-align:top;">path</td><td style="vertical-align:top;">:</td><td><div></div></td></tr><tr><td style="font-weight:bold;vertical-align:top;">secure</td><td style="vertical-align:top;">:</td><td><div></div></td></tr><tr><td style="font-weight:bold;vertical-align:top;">version</td><td style="vertical-align:top;">:</td><td><div></div></td></tr></table></div></td></tr><tr><td style="font-weight:bold;vertical-align:top;">session_id_hw4review1</td><td style="vertical-align:top;">:</td><td><div>127.0.0.1-c7749291-86e4-4ec9-956c-89422d576d7f<table><tr><td style="font-weight:bold;vertical-align:top;">comment</td><td style="vertical-align:top;">:</td><td><div></div></td></tr><tr><td style="font-weight:bold;vertical-align:top;">domain</td><td style="vertical-align:top;">:</td><td><div></div></td></tr><tr><td style="font-weight:bold;vertical-align:top;">expires</td><td style="vertical-align:top;">:</td><td><div></div></td></tr><tr><td style="font-weight:bold;vertical-align:top;">httponly</td><td style="vertical-align:top;">:</td><td><div></div></td></tr><tr><td style="font-weight:bold;vertical-align:top;">max-age</td><td style="vertical-align:top;">:</td><td><div></div></td></tr><tr><td style="font-weight:bold;vertical-align:top;">path</td><td style="vertical-align:top;">:</td><td><div></div></td></tr><tr><td style="font-weight:bold;vertical-align:top;">secure</td><td style="vertical-align:top;">:</td><td><div></div></td></tr><tr><td style="font-weight:bold;vertical-align:top;">version</td><td style="vertical-align:top;">:</td><td><div></div></td></tr></table></div></td></tr><tr><td style="font-weight:bold;vertical-align:top;">session_id_hw4review2</td><td style="vertical-align:top;">:</td><td><div>127.0.0.1-fe9693ce-1e9c-423b-b9dc-2e5a40f1bc1a<table><tr><td style="font-weight:bold;vertical-align:top;">comment</td><td style="vertical-align:top;">:</td><td><div></div></td></tr><tr><td style="font-weight:bold;vertical-align:top;">domain</td><td style="vertical-align:top;">:</td><td><div></div></td></tr><tr><td style="font-weight:bold;vertical-align:top;">expires</td><td style="vertical-align:top;">:</td><td><div></div></td></tr><tr><td style="font-weight:bold;vertical-align:top;">httponly</td><td style="vertical-align:top;">:</td><td><div></div></td></tr><tr><td style="font-weight:bold;vertical-align:top;">max-age</td><td style="vertical-align:top;">:</td><td><div></div></td></tr><tr><td style="font-weight:bold;vertical-align:top;">path</td><td style="vertical-align:top;">:</td><td><div></div></td></tr><tr><td style="font-weight:bold;vertical-align:top;">secure</td><td style="vertical-align:top;">:</td><td><div></div></td></tr><tr><td style="font-weight:bold;vertical-align:top;">version</td><td style="vertical-align:top;">:</td><td><div></div></td></tr></table></div></td></tr><tr><td style="font-weight:bold;vertical-align:top;">session_id_hw4review3</td><td style="vertical-align:top;">:</td><td><div>127.0.0.1-f5e0715d-a791-47b4-b6e6-260c514202ce<table><tr><td style="font-weight:bold;vertical-align:top;">comment</td><td style="vertical-align:top;">:</td><td><div></div></td></tr><tr><td style="font-weight:bold;vertical-align:top;">domain</td><td style="vertical-align:top;">:</td><td><div></div></td></tr><tr><td style="font-weight:bold;vertical-align:top;">expires</td><td style="vertical-align:top;">:</td><td><div></div></td></tr><tr><td style="font-weight:bold;vertical-align:top;">httponly</td><td style="vertical-align:top;">:</td><td><div></div></td></tr><tr><td style="font-weight:bold;vertical-align:top;">max-age</td><td style="vertical-align:top;">:</td><td><div></div></td></tr><tr><td style="font-weight:bold;vertical-align:top;">path</td><td style="vertical-align:top;">:</td><td><div></div></td></tr><tr><td style="font-weight:bold;vertical-align:top;">secure</td><td style="vertical-align:top;">:</td><td><div></div></td></tr><tr><td style="font-weight:bold;vertical-align:top;">version</td><td style="vertical-align:top;">:</td><td><div></div></td></tr></table></div></td></tr><tr><td style="font-weight:bold;vertical-align:top;">session_id_hw4review4</td><td style="vertical-align:top;">:</td><td><div>127.0.0.1-95a4b362-f877-460d-a83f-075203dc5509<table><tr><td style="font-weight:bold;vertical-align:top;">comment</td><td style="vertical-align:top;">:</td><td><div></div></td></tr><tr><td style="font-weight:bold;vertical-align:top;">domain</td><td style="vertical-align:top;">:</td><td><div></div></td></tr><tr><td style="font-weight:bold;vertical-align:top;">expires</td><td style="vertical-align:top;">:</td><td><div></div></td></tr><tr><td style="font-weight:bold;vertical-align:top;">httponly</td><td style="vertical-align:top;">:</td><td><div></div></td></tr><tr><td style="font-weight:bold;vertical-align:top;">max-age</td><td style="vertical-align:top;">:</td><td><div></div></td></tr><tr><td style="font-weight:bold;vertical-align:top;">path</td><td style="vertical-align:top;">:</td><td><div></div></td></tr><tr><td style="font-weight:bold;vertical-align:top;">secure</td><td style="vertical-align:top;">:</td><td><div></div></td></tr><tr><td style="font-weight:bold;vertical-align:top;">version</td><td style="vertical-align:top;">:</td><td><div></div></td></tr></table></div></td></tr><tr><td style="font-weight:bold;vertical-align:top;">session_id_hw4review5</td><td style="vertical-align:top;">:</td><td><div>127.0.0.1-749799e6-277c-4677-8014-05100c19321f<table><tr><td style="font-weight:bold;vertical-align:top;">comment</td><td style="vertical-align:top;">:</td><td><div></div></td></tr><tr><td style="font-weight:bold;vertical-align:top;">domain</td><td style="vertical-align:top;">:</td><td><div></div></td></tr><tr><td style="font-weight:bold;vertical-align:top;">expires</td><td style="vertical-align:top;">:</td><td><div></div></td></tr><tr><td style="font-weight:bold;vertical-align:top;">httponly</td><td style="vertical-align:top;">:</td><td><div></div></td></tr><tr><td style="font-weight:bold;vertical-align:top;">max-age</td><td style="vertical-align:top;">:</td><td><div></div></td></tr><tr><td style="font-weight:bold;vertical-align:top;">path</td><td style="vertical-align:top;">:</td><td><div></div></td></tr><tr><td style="font-weight:bold;vertical-align:top;">secure</td><td style="vertical-align:top;">:</td><td><div></div></td></tr><tr><td style="font-weight:bold;vertical-align:top;">version</td><td style="vertical-align:top;">:</td><td><div></div></td></tr></table></div></td></tr><tr><td style="font-weight:bold;vertical-align:top;">session_id_hw5goodexample</td><td style="vertical-align:top;">:</td><td><div>127.0.0.1-abbe51f7-02e1-4beb-8ef4-79209fd207b9<table><tr><td style="font-weight:bold;vertical-align:top;">comment</td><td style="vertical-align:top;">:</td><td><div></div></td></tr><tr><td style="font-weight:bold;vertical-align:top;">domain</td><td style="vertical-align:top;">:</td><td><div></div></td></tr><tr><td style="font-weight:bold;vertical-align:top;">expires</td><td style="vertical-align:top;">:</td><td><div></div></td></tr><tr><td style="font-weight:bold;vertical-align:top;">httponly</td><td style="vertical-align:top;">:</td><td><div></div></td></tr><tr><td style="font-weight:bold;vertical-align:top;">max-age</td><td style="vertical-align:top;">:</td><td><div></div></td></tr><tr><td style="font-weight:bold;vertical-align:top;">path</td><td style="vertical-align:top;">:</td><td><div></div></td></tr><tr><td style="font-weight:bold;vertical-align:top;">secure</td><td style="vertical-align:top;">:</td><td><div></div></td></tr><tr><td style="font-weight:bold;vertical-align:top;">version</td><td style="vertical-align:top;">:</td><td><div></div></td></tr></table></div></td></tr><tr><td style="font-weight:bold;vertical-align:top;">session_id_hw5review1</td><td style="vertical-align:top;">:</td><td><div>127.0.0.1-deeda478-a9fe-4052-b45f-2bb073e19566<table><tr><td style="font-weight:bold;vertical-align:top;">comment</td><td style="vertical-align:top;">:</td><td><div></div></td></tr><tr><td style="font-weight:bold;vertical-align:top;">domain</td><td style="vertical-align:top;">:</td><td><div></div></td></tr><tr><td style="font-weight:bold;vertical-align:top;">expires</td><td style="vertical-align:top;">:</td><td><div></div></td></tr><tr><td style="font-weight:bold;vertical-align:top;">httponly</td><td style="vertical-align:top;">:</td><td><div></div></td></tr><tr><td style="font-weight:bold;vertical-align:top;">max-age</td><td style="vertical-align:top;">:</td><td><div></div></td></tr><tr><td style="font-weight:bold;vertical-align:top;">path</td><td style="vertical-align:top;">:</td><td><div></div></td></tr><tr><td style="font-weight:bold;vertical-align:top;">secure</td><td style="vertical-align:top;">:</td><td><div></div></td></tr><tr><td style="font-weight:bold;vertical-align:top;">version</td><td style="vertical-align:top;">:</td><td><div></div></td></tr></table></div></td></tr><tr><td style="font-weight:bold;vertical-align:top;">session_id_hw5review2</td><td style="vertical-align:top;">:</td><td><div>127.0.0.1-fcd49a18-c968-4f2f-93bc-1e8ba810828d<table><tr><td style="font-weight:bold;vertical-align:top;">comment</td><td style="vertical-align:top;">:</td><td><div></div></td></tr><tr><td style="font-weight:bold;vertical-align:top;">domain</td><td style="vertical-align:top;">:</td><td><div></div></td></tr><tr><td style="font-weight:bold;vertical-align:top;">expires</td><td style="vertical-align:top;">:</td><td><div></div></td></tr><tr><td style="font-weight:bold;vertical-align:top;">httponly</td><td style="vertical-align:top;">:</td><td><div></div></td></tr><tr><td style="font-weight:bold;vertical-align:top;">max-age</td><td style="vertical-align:top;">:</td><td><div></div></td></tr><tr><td style="font-weight:bold;vertical-align:top;">path</td><td style="vertical-align:top;">:</td><td><div></div></td></tr><tr><td style="font-weight:bold;vertical-align:top;">secure</td><td style="vertical-align:top;">:</td><td><div></div></td></tr><tr><td style="font-weight:bold;vertical-align:top;">version</td><td style="vertical-align:top;">:</td><td><div></div></td></tr></table></div></td></tr><tr><td style="font-weight:bold;vertical-align:top;">session_id_hw5review3</td><td style="vertical-align:top;">:</td><td><div>127.0.0.1-4349e9cf-a7e7-4fec-a7f6-e70d01aead50<table><tr><td style="font-weight:bold;vertical-align:top;">comment</td><td style="vertical-align:top;">:</td><td><div></div></td></tr><tr><td style="font-weight:bold;vertical-align:top;">domain</td><td style="vertical-align:top;">:</td><td><div></div></td></tr><tr><td style="font-weight:bold;vertical-align:top;">expires</td><td style="vertical-align:top;">:</td><td><div></div></td></tr><tr><td style="font-weight:bold;vertical-align:top;">httponly</td><td style="vertical-align:top;">:</td><td><div></div></td></tr><tr><td style="font-weight:bold;vertical-align:top;">max-age</td><td style="vertical-align:top;">:</td><td><div></div></td></tr><tr><td style="font-weight:bold;vertical-align:top;">path</td><td style="vertical-align:top;">:</td><td><div></div></td></tr><tr><td style="font-weight:bold;vertical-align:top;">secure</td><td style="vertical-align:top;">:</td><td><div></div></td></tr><tr><td style="font-weight:bold;vertical-align:top;">version</td><td style="vertical-align:top;">:</td><td><div></div></td></tr></table></div></td></tr><tr><td style="font-weight:bold;vertical-align:top;">session_id_hw5review4</td><td style="vertical-align:top;">:</td><td><div>127.0.0.1-ca433fce-6710-4047-81de-8a7e52deab13<table><tr><td style="font-weight:bold;vertical-align:top;">comment</td><td style="vertical-align:top;">:</td><td><div></div></td></tr><tr><td style="font-weight:bold;vertical-align:top;">domain</td><td style="vertical-align:top;">:</td><td><div></div></td></tr><tr><td style="font-weight:bold;vertical-align:top;">expires</td><td style="vertical-align:top;">:</td><td><div></div></td></tr><tr><td style="font-weight:bold;vertical-align:top;">httponly</td><td style="vertical-align:top;">:</td><td><div></div></td></tr><tr><td style="font-weight:bold;vertical-align:top;">max-age</td><td style="vertical-align:top;">:</td><td><div></div></td></tr><tr><td style="font-weight:bold;vertical-align:top;">path</td><td style="vertical-align:top;">:</td><td><div></div></td></tr><tr><td style="font-weight:bold;vertical-align:top;">secure</td><td style="vertical-align:top;">:</td><td><div></div></td></tr><tr><td style="font-weight:bold;vertical-align:top;">version</td><td style="vertical-align:top;">:</td><td><div></div></td></tr></table></div></td></tr><tr><td style="font-weight:bold;vertical-align:top;">session_id_hw5review5</td><td style="vertical-align:top;">:</td><td><div>127.0.0.1-590233f9-51a5-4fe0-a837-9455bc2d1680<table><tr><td style="font-weight:bold;vertical-align:top;">comment</td><td style="vertical-align:top;">:</td><td><div></div></td></tr><tr><td style="font-weight:bold;vertical-align:top;">domain</td><td style="vertical-align:top;">:</td><td><div></div></td></tr><tr><td style="font-weight:bold;vertical-align:top;">expires</td><td style="vertical-align:top;">:</td><td><div></div></td></tr><tr><td style="font-weight:bold;vertical-align:top;">httponly</td><td style="vertical-align:top;">:</td><td><div></div></td></tr><tr><td style="font-weight:bold;vertical-align:top;">max-age</td><td style="vertical-align:top;">:</td><td><div></div></td></tr><tr><td style="font-weight:bold;vertical-align:top;">path</td><td style="vertical-align:top;">:</td><td><div></div></td></tr><tr><td style="font-weight:bold;vertical-align:top;">secure</td><td style="vertical-align:top;">:</td><td><div></div></td></tr><tr><td style="font-weight:bold;vertical-align:top;">version</td><td style="vertical-align:top;">:</td><td><div></div></td></tr></table></div></td></tr><tr><td style="font-weight:bold;vertical-align:top;">session_id_myapp</td><td style="vertical-align:top;">:</td><td><div>127.0.0.1-4618588b-1260-4b0f-bb4b-c31f0c8e43d4<table><tr><td style="font-weight:bold;vertical-align:top;">comment</td><td style="vertical-align:top;">:</td><td><div></div></td></tr><tr><td style="font-weight:bold;vertical-align:top;">domain</td><td style="vertical-align:top;">:</td><td><div></div></td></tr><tr><td style="font-weight:bold;vertical-align:top;">expires</td><td style="vertical-align:top;">:</td><td><div></div></td></tr><tr><td style="font-weight:bold;vertical-align:top;">httponly</td><td style="vertical-align:top;">:</td><td><div></div></td></tr><tr><td style="font-weight:bold;vertical-align:top;">max-age</td><td style="vertical-align:top;">:</td><td><div></div></td></tr><tr><td style="font-weight:bold;vertical-align:top;">path</td><td style="vertical-align:top;">:</td><td><div></div></td></tr><tr><td style="font-weight:bold;vertical-align:top;">secure</td><td style="vertical-align:top;">:</td><td><div></div></td></tr><tr><td style="font-weight:bold;vertical-align:top;">version</td><td style="vertical-align:top;">:</td><td><div></div></td></tr></table></div></td></tr><tr><td style="font-weight:bold;vertical-align:top;">session_id_secondreview</td><td style="vertical-align:top;">:</td><td><div>127.0.0.1-088cc512-9ccc-48a6-a7f3-40a86c23bf2a<table><tr><td style="font-weight:bold;vertical-align:top;">comment</td><td style="vertical-align:top;">:</td><td><div></div></td></tr><tr><td style="font-weight:bold;vertical-align:top;">domain</td><td style="vertical-align:top;">:</td><td><div></div></td></tr><tr><td style="font-weight:bold;vertical-align:top;">expires</td><td style="vertical-align:top;">:</td><td><div></div></td></tr><tr><td style="font-weight:bold;vertical-align:top;">httponly</td><td style="vertical-align:top;">:</td><td><div></div></td></tr><tr><td style="font-weight:bold;vertical-align:top;">max-age</td><td style="vertical-align:top;">:</td><td><div></div></td></tr><tr><td style="font-weight:bold;vertical-align:top;">path</td><td style="vertical-align:top;">:</td><td><div></div></td></tr><tr><td style="font-weight:bold;vertical-align:top;">secure</td><td style="vertical-align:top;">:</td><td><div></div></td></tr><tr><td style="font-weight:bold;vertical-align:top;">version</td><td style="vertical-align:top;">:</td><td><div></div></td></tr></table></div></td></tr><tr><td style="font-weight:bold;vertical-align:top;">session_id_start</td><td style="vertical-align:top;">:</td><td><div>127.0.0.1-f704e6f6-dd17-4604-93a0-5bf61de10569<table><tr><td style="font-weight:bold;vertical-align:top;">comment</td><td style="vertical-align:top;">:</td><td><div></div></td></tr><tr><td style="font-weight:bold;vertical-align:top;">domain</td><td style="vertical-align:top;">:</td><td><div></div></td></tr><tr><td style="font-weight:bold;vertical-align:top;">expires</td><td style="vertical-align:top;">:</td><td><div></div></td></tr><tr><td style="font-weight:bold;vertical-align:top;">httponly</td><td style="vertical-align:top;">:</td><td><div></div></td></tr><tr><td style="font-weight:bold;vertical-align:top;">max-age</td><td style="vertical-align:top;">:</td><td><div></div></td></tr><tr><td style="font-weight:bold;vertical-align:top;">path</td><td style="vertical-align:top;">:</td><td><div></div></td></tr><tr><td style="font-weight:bold;vertical-align:top;">secure</td><td style="vertical-align:top;">:</td><td><div></div></td></tr><tr><td style="font-weight:bold;vertical-align:top;">version</td><td style="vertical-align:top;">:</td><td><div></div></td></tr></table></div></td></tr><tr><td style="font-weight:bold;vertical-align:top;">session_id_welcome</td><td style="vertical-align:top;">:</td><td><div>127.0.0.1-efc6f102-c04d-427b-986e-e508ae20be4b<table><tr><td style="font-weight:bold;vertical-align:top;">comment</td><td style="vertical-align:top;">:</td><td><div></div></td></tr><tr><td style="font-weight:bold;vertical-align:top;">domain</td><td style="vertical-align:top;">:</td><td><div></div></td></tr><tr><td style="font-weight:bold;vertical-align:top;">expires</td><td style="vertical-align:top;">:</td><td><div></div></td></tr><tr><td style="font-weight:bold;vertical-align:top;">httponly</td><td style="vertical-align:top;">:</td><td><div></div></td></tr><tr><td style="font-weight:bold;vertical-align:top;">max-age</td><td style="vertical-align:top;">:</td><td><div></div></td></tr><tr><td style="font-weight:bold;vertical-align:top;">path</td><td style="vertical-align:top;">:</td><td><div></div></td></tr><tr><td style="font-weight:bold;vertical-align:top;">secure</td><td style="vertical-align:top;">:</td><td><div></div></td></tr><tr><td style="font-weight:bold;vertical-align:top;">version</td><td style="vertical-align:top;">:</td><td><div></div></td></tr></table></div></td></tr></table></div></td></tr><tr><td style="font-weight:bold;vertical-align:top;">env</td><td style="vertical-align:top;">:</td><td><div><table><tr><td style="font-weight:bold;vertical-align:top;">HTTP_ACCEPT</td><td style="vertical-align:top;">:</td><td><div>text/html,application/xhtml+xml,application/xml;q=0.9,image/webp,*/*;q=0.8</div></td></tr><tr><td style="font-weight:bold;vertical-align:top;">HTTP_ACCEPT_ENCODING</td><td style="vertical-align:top;">:</td><td><div>gzip, deflate, sdch</div></td></tr><tr><td style="font-weight:bold;vertical-align:top;">HTTP_ACCEPT_LANGUAGE</td><td style="vertical-align:top;">:</td><td><div>en-US,en;q=0.8</div></td></tr><tr><td style="font-weight:bold;vertical-align:top;">HTTP_CACHE_CONTROL</td><td style="vertical-align:top;">:</td><td><div>max-age=0</div></td></tr><tr><td style="font-weight:bold;vertical-align:top;">HTTP_CONNECTION</td><td style="vertical-align:top;">:</td><td><div>keep-alive</div></td></tr><tr><td style="font-weight:bold;vertical-align:top;">HTTP_COOKIE</td><td style="vertical-align:top;">:</td><td><div>session_id_myapp=127.0.0.1-4618588b-1260-4b0f-bb4b-c31f0c8e43d4; session_id_firstreview=127.0.0.1-3be33172-ae50-4c37-b7c4-cfce0b4fcb3a; session_id_secondreview=127.0.0.1-088cc512-9ccc-48a6-a7f3-40a86c23bf2a; session_id_1stassignment=127.0.0.1-936d3fc7-5f88-49da-b698-4cb050fec2ec; session_id_hw2review1=127.0.0.1-a12de2d3-2d78-40ea-8437-65efe1ad9496; session_id_hw2review2=127.0.0.1-0a942478-0d37-4205-a92c-672e9799a858; session_id_hw2review3=127.0.0.1-97354fc1-cdc4-4c33-8485-00742e528dc3; session_id_hw2review4=127.0.0.1-2f0cee36-c3a2-44bd-9d53-93fd1bbd536b; session_id_hw2review5=127.0.0.1-5d1f3ba1-28a1-43f3-a292-67f87f324052; session_id_hw4review1=127.0.0.1-c7749291-86e4-4ec9-956c-89422d576d7f; session_id_hw4review2=127.0.0.1-fe9693ce-1e9c-423b-b9dc-2e5a40f1bc1a; session_id_hw4review3=127.0.0.1-f5e0715d-a791-47b4-b6e6-260c514202ce; session_id_hw4review4=127.0.0.1-95a4b362-f877-460d-a83f-075203dc5509; session_id_hw4review5=127.0.0.1-749799e6-277c-4677-8014-05100c19321f; session_id_start=127.0.0.1-f704e6f6-dd17-4604-93a0-5bf61de10569; session_id_5thassignment=127.0.0.1-13c8535a-aab0-44a3-9755-deeb41ffa54e; session_id_hw5goodexample=127.0.0.1-abbe51f7-02e1-4beb-8ef4-79209fd207b9; session_id_hw5review1=127.0.0.1-deeda478-a9fe-4052-b45f-2bb073e19566; session_id_hw5review2=127.0.0.1-fcd49a18-c968-4f2f-93bc-1e8ba810828d; session_id_hw5review3=127.0.0.1-4349e9cf-a7e7-4fec-a7f6-e70d01aead50; session_id_hw5review4=127.0.0.1-ca433fce-6710-4047-81de-8a7e52deab13; session_id_5thassignment2=127.0.0.1-2ff56ed7-3436-469f-94c7-fc119ff9506d; session_id_hw5review5=127.0.0.1-590233f9-51a5-4fe0-a837-9455bc2d1680; session_id_discuss2=127.0.0.1-d6290b67-8961-4e24-90ef-a21fd178a7c6; session_id_2ndassignment=127.0.0.1-a2751377-8563-444f-b8d9-7dadab44aa60; session_id_welcome=127.0.0.1-efc6f102-c04d-427b-986e-e508ae20be4b; session_id_admin=127.0.0.1-db9aa010-56f4-4ae7-b5f8-a75bd3695a44; session_id_discuss=127.0.0.1-11b14645-ec0c-450e-8d3a-a63501691c54</div></td></tr><tr><td style="font-weight:bold;vertical-align:top;">HTTP_HOST</td><td style="vertical-align:top;">:</td><td><div>127.0.0.1:8800</div></td></tr><tr><td style="font-weight:bold;vertical-align:top;">HTTP_REFERER</td><td style="vertical-align:top;">:</td><td><div>http://127.0.0.1:8800/Discuss/default/index</div></td></tr><tr><td style="font-weight:bold;vertical-align:top;">HTTP_UPGRADE_INSECURE_REQUESTS</td><td style="vertical-align:top;">:</td><td><div>1</div></td></tr><tr><td style="font-weight:bold;vertical-align:top;">HTTP_USER_AGENT</td><td style="vertical-align:top;">:</td><td><div>Mozilla/5.0 (Macintosh; Intel Mac OS X 10_11_2) AppleWebKit/537.36 (KHTML, like Gecko) Chrome/46.0.2490.86 Safari/537.36</div></td></tr><tr><td style="font-weight:bold;vertical-align:top;">PATH_INFO</td><td style="vertical-align:top;">:</td><td><div>/Discuss/default/newdiscussion</div></td></tr><tr><td style="font-weight:bold;vertical-align:top;">QUERY_STRING</td><td style="vertical-align:top;">:</td><td><div></div></td></tr><tr><td style="font-weight:bold;vertical-align:top;">REMOTE_ADDR</td><td style="vertical-align:top;">:</td><td><div>127.0.0.1</div></td></tr><tr><td style="font-weight:bold;vertical-align:top;">REMOTE_PORT</td><td style="vertical-align:top;">:</td><td><div>49634</div></td></tr><tr><td style="font-weight:bold;vertical-align:top;">REQUEST_METHOD</td><td style="vertical-align:top;">:</td><td><div>GET</div></td></tr><tr><td style="font-weight:bold;vertical-align:top;">SCRIPT_NAME</td><td style="vertical-align:top;">:</td><td><div></div></td></tr><tr><td style="font-weight:bold;vertical-align:top;">SERVER_NAME</td><td style="vertical-align:top;">:</td><td><div>jMac-5K.local</div></td></tr><tr><td style="font-weight:bold;vertical-align:top;">SERVER_PORT</td><td style="vertical-align:top;">:</td><td><div>8800</div></td></tr><tr><td style="font-weight:bold;vertical-align:top;">SERVER_PROTOCOL</td><td style="vertical-align:top;">:</td><td><div>HTTP/1.1</div></td></tr><tr><td style="font-weight:bold;vertical-align:top;">SERVER_SOFTWARE</td><td style="vertical-align:top;">:</td><td><div>Rocket 1.2.6</div></td></tr><tr><td style="font-weight:bold;vertical-align:top;">app_folders</td><td style="vertical-align:top;">:</td><td><div>set([&#x27;/Users/Joshua/Git Repositories/CMPS 183/web2py/applications/admin/&#x27;, &#x27;/Users/Joshua/Git Repositories/CMPS 183/web2py/applications/Discuss/&#x27;, &#x27;/Users/Joshua/Git Repositories/CMPS 183/web2py/applications/welcome/&#x27;])</div></td></tr><tr><td style="font-weight:bold;vertical-align:top;">applications_parent</td><td style="vertical-align:top;">:</td><td><div>/Users/Joshua/Git Repositories/CMPS 183/web2py</div></td></tr><tr><td style="font-weight:bold;vertical-align:top;">cmd_args</td><td style="vertical-align:top;">:</td><td><div><table></table></div></td></tr><tr><td style="font-weight:bold;vertical-align:top;">cmd_options</td><td style="vertical-align:top;">:</td><td><div>&lt;Values at 0x1030f51b8: {&#x27;verbose&#x27;: False, &#x27;ip&#x27;: &#x27;127.0.0.1&#x27;, &#x27;debuglevel&#x27;: 30, &#x27;with_scheduler&#x27;: False, &#x27;ips&#x27;: [&#x27;10.0.1.3&#x27;, &#x27;fe80::ba09:8aff:feb9:b16b%en1&#x27;], &#x27;shutdown_timeout&#x27;: 5, &#x27;taskbar&#x27;: False, &#x27;with_coverage&#x27;: False, &#x27;scheduler_groups&#x27;: None, &#x27;port&#x27;: 8800, &#x27;maxthreads&#x27;: None, &#x27;softcron&#x27;: False, &#x27;server_name&#x27;: &#x27;jMac-5K.local&#x27;, &#x27;bpython&#x27;: False, &#x27;nogui&#x27;: False, &#x27;pid_filename&#x27;: &#x27;httpserver.pid&#x27;, &#x27;print_errors&#x27;: True, &#x27;extcron&#x27;: False, &#x27;runcron&#x27;: False, &#x27;run_system_tests&#x27;: False, &#x27;test&#x27;: None, &#x27;folder&#x27;: &#x27;/Users/Joshua/Git Repositories/CMPS 183/web2py&#x27;, &#x27;config&#x27;: &#x27;&#x27;, &#x27;minthreads&#x27;: None, &#x27;shell&#x27;: None, &#x27;run&#x27;: &#x27;&#x27;, &#x27;log_filename&#x27;: &#x27;httpserver.log&#x27;, &#x27;profiler_dir&#x27;: None, &#x27;args&#x27;: [&#x27;&#x27;], &#x27;socket_timeout&#x27;: 5, &#x27;ssl_ca_certificate&#x27;: None, &#x27;scheduler&#x27;: None, &#x27;interfaces&#x27;: None, &#x27;ssl_private_key&#x27;: &#x27;&#x27;, &#x27;gae&#x27;: None, &#x27;password&#x27;: &#x27;helloclass&#x27;, &#x27;request_queue_size&#x27;: 5, &#x27;ssl_certificate&#x27;: &#x27;&#x27;, &#x27;cronjob&#x27;: False, &#x27;numthreads&#x27;: None, &#x27;quiet&#x27;: False, &#x27;import_models&#x27;: False, &#x27;timeout&#x27;: 10, &#x27;plain&#x27;: False, &#x27;nobanner&#x27;: False}&gt;</div></td></tr><tr><td style="font-weight:bold;vertical-align:top;">db_sessions</td><td style="vertical-align:top;">:</td><td><div>set([])</div></td></tr><tr><td style="font-weight:bold;vertical-align:top;">debugging</td><td style="vertical-align:top;">:</td><td><div>False</div></td></tr><tr><td style="font-weight:bold;vertical-align:top;">gluon_parent</td><td style="vertical-align:top;">:</td><td><div>/Users/Joshua/Git Repositories/CMPS 183/web2py</div></td></tr><tr><td style="font-weight:bold;vertical-align:top;">http_accept</td><td style="vertical-align:top;">:</td><td><div>text/html,application/xhtml+xml,application/xml;q=0.9,image/webp,*/*;q=0.8</div></td></tr><tr><td style="font-weight:bold;vertical-align:top;">http_accept_encoding</td><td style="vertical-align:top;">:</td><td><div>gzip, deflate, sdch</div></td></tr><tr><td style="font-weight:bold;vertical-align:top;">http_accept_language</td><td style="vertical-align:top;">:</td><td><div>en-US,en;q=0.8</div></td></tr><tr><td style="font-weight:bold;vertical-align:top;">http_cache_control</td><td style="vertical-align:top;">:</td><td><div>max-age=0</div></td></tr><tr><td style="font-weight:bold;vertical-align:top;">http_connection</td><td style="vertical-align:top;">:</td><td><div>keep-alive</div></td></tr><tr><td style="font-weight:bold;vertical-align:top;">http_cookie</td><td style="vertical-align:top;">:</td><td><div>session_id_myapp=127.0.0.1-4618588b-1260-4b0f-bb4b-c31f0c8e43d4; session_id_firstreview=127.0.0.1-3be33172-ae50-4c37-b7c4-cfce0b4fcb3a; session_id_secondreview=127.0.0.1-088cc512-9ccc-48a6-a7f3-40a86c23bf2a; session_id_1stassignment=127.0.0.1-936d3fc7-5f88-49da-b698-4cb050fec2ec; session_id_hw2review1=127.0.0.1-a12de2d3-2d78-40ea-8437-65efe1ad9496; session_id_hw2review2=127.0.0.1-0a942478-0d37-4205-a92c-672e9799a858; session_id_hw2review3=127.0.0.1-97354fc1-cdc4-4c33-8485-00742e528dc3; session_id_hw2review4=127.0.0.1-2f0cee36-c3a2-44bd-9d53-93fd1bbd536b; session_id_hw2review5=127.0.0.1-5d1f3ba1-28a1-43f3-a292-67f87f324052; session_id_hw4review1=127.0.0.1-c7749291-86e4-4ec9-956c-89422d576d7f; session_id_hw4review2=127.0.0.1-fe9693ce-1e9c-423b-b9dc-2e5a40f1bc1a; session_id_hw4review3=127.0.0.1-f5e0715d-a791-47b4-b6e6-260c514202ce; session_id_hw4review4=127.0.0.1-95a4b362-f877-460d-a83f-075203dc5509; session_id_hw4review5=127.0.0.1-749799e6-277c-4677-8014-05100c19321f; session_id_start=127.0.0.1-f704e6f6-dd17-4604-93a0-5bf61de10569; session_id_5thassignment=127.0.0.1-13c8535a-aab0-44a3-9755-deeb41ffa54e; session_id_hw5goodexample=127.0.0.1-abbe51f7-02e1-4beb-8ef4-79209fd207b9; session_id_hw5review1=127.0.0.1-deeda478-a9fe-4052-b45f-2bb073e19566; session_id_hw5review2=127.0.0.1-fcd49a18-c968-4f2f-93bc-1e8ba810828d; session_id_hw5review3=127.0.0.1-4349e9cf-a7e7-4fec-a7f6-e70d01aead50; session_id_hw5review4=127.0.0.1-ca433fce-6710-4047-81de-8a7e52deab13; session_id_5thassignment2=127.0.0.1-2ff56ed7-3436-469f-94c7-fc119ff9506d; session_id_hw5review5=127.0.0.1-590233f9-51a5-4fe0-a837-9455bc2d1680; session_id_discuss2=127.0.0.1-d6290b67-8961-4e24-90ef-a21fd178a7c6; session_id_2ndassignment=127.0.0.1-a2751377-8563-444f-b8d9-7dadab44aa60; session_id_welcome=127.0.0.1-efc6f102-c04d-427b-986e-e508ae20be4b; session_id_admin=127.0.0.1-db9aa010-56f4-4ae7-b5f8-a75bd3695a44; session_id_discuss=127.0.0.1-11b14645-ec0c-450e-8d3a-a63501691c54</div></td></tr><tr><td style="font-weight:bold;vertical-align:top;">http_host</td><td style="vertical-align:top;">:</td><td><div>127.0.0.1:8800</div></td></tr><tr><td style="font-weight:bold;vertical-align:top;">http_referer</td><td style="vertical-align:top;">:</td><td><div>http://127.0.0.1:8800/Discuss/default/index</div></td></tr><tr><td style="font-weight:bold;vertical-align:top;">http_upgrade_insecure_requests</td><td style="vertical-align:top;">:</td><td><div>1</div></td></tr><tr><td style="font-weight:bold;vertical-align:top;">http_user_agent</td><td style="vertical-align:top;">:</td><td><div>Mozilla/5.0 (Macintosh; Intel Mac OS X 10_11_2) AppleWebKit/537.36 (KHTML, like Gecko) Chrome/46.0.2490.86 Safari/537.36</div></td></tr><tr><td style="font-weight:bold;vertical-align:top;">is_jython</td><td style="vertical-align:top;">:</td><td><div>False</div></td></tr><tr><td style="font-weight:bold;vertical-align:top;">is_pypy</td><td style="vertical-align:top;">:</td><td><div>False</div></td></tr><tr><td style="font-weight:bold;vertical-align:top;">is_source</td><td style="vertical-align:top;">:</td><td><div>True</div></td></tr><tr><td style="font-weight:bold;vertical-align:top;">local_hosts</td><td style="vertical-align:top;">:</td><td><div><table><tr><td><div>jMac-5K.local</div></td></tr><tr><td><div>::ffff:127.0.0.1</div></td></tr><tr><td><div>::1</div></td></tr><tr><td><div>10.0.1.3</div></td></tr><tr><td><div>127.0.0.1</div></td></tr><tr><td><div>fe80::ba09:8aff:feb9:b16b%en1</div></td></tr><tr><td><div>jmac-5k.local</div></td></tr></table></div></td></tr><tr><td style="font-weight:bold;vertical-align:top;">path_info</td><td style="vertical-align:top;">:</td><td><div>/Discuss/default/newdiscussion</div></td></tr><tr><td style="font-weight:bold;vertical-align:top;">query_string</td><td style="vertical-align:top;">:</td><td><div></div></td></tr><tr><td style="font-weight:bold;vertical-align:top;">remote_addr</td><td style="vertical-align:top;">:</td><td><div>127.0.0.1</div></td></tr><tr><td style="font-weight:bold;vertical-align:top;">remote_port</td><td style="vertical-align:top;">:</td><td><div>49634</div></td></tr><tr><td style="font-weight:bold;vertical-align:top;">request_method</td><td style="vertical-align:top;">:</td><td><div>GET</div></td></tr><tr><td style="font-weight:bold;vertical-align:top;">request_uri</td><td style="vertical-align:top;">:</td><td><div>/Discuss/default/newdiscussion</div></td></tr><tr><td style="font-weight:bold;vertical-align:top;">script_name</td><td style="vertical-align:top;">:</td><td><div></div></td></tr><tr><td style="font-weight:bold;vertical-align:top;">server_name</td><td style="vertical-align:top;">:</td><td><div>jMac-5K.local</div></td></tr><tr><td style="font-weight:bold;vertical-align:top;">server_port</td><td style="vertical-align:top;">:</td><td><div>8800</div></td></tr><tr><td style="font-weight:bold;vertical-align:top;">server_protocol</td><td style="vertical-align:top;">:</td><td><div>HTTP/1.1</div></td></tr><tr><td style="font-weight:bold;vertical-align:top;">server_software</td><td style="vertical-align:top;">:</td><td><div>Rocket 1.2.6</div></td></tr><tr><td style="font-weight:bold;vertical-align:top;">web2py_path</td><td style="vertical-align:top;">:</td><td><div>/Users/Joshua/Git Repositories/CMPS 183/web2py</div></td></tr><tr><td style="font-weight:bold;vertical-align:top;">web2py_version</td><td style="vertical-align:top;">:</td><td><div>2.12.3-stable+timestamp.2015.08.19.00.18.03</div></td></tr><tr><td style="font-weight:bold;vertical-align:top;">wsgi.errors</td><td style="vertical-align:top;">:</td><td><div>&lt;open file &#x27;&lt;stderr&gt;&#x27;, mode &#x27;w&#x27; at 0x1021201e0&gt;</div></td></tr><tr><td style="font-weight:bold;vertical-align:top;">wsgi.file_wrapper</td><td style="vertical-align:top;">:</td><td><div>&lt;class wsgiref.util.FileWrapper at 0x103090120&gt;</div></td></tr><tr><td style="font-weight:bold;vertical-align:top;">wsgi.input</td><td style="vertical-align:top;">:</td><td><div>&lt;socket._fileobject object at 0x1042eec50&gt;</div></td></tr><tr><td style="font-weight:bold;vertical-align:top;">wsgi.multiprocess</td><td style="vertical-align:top;">:</td><td><div>False</div></td></tr><tr><td style="font-weight:bold;vertical-align:top;">wsgi.multithread</td><td style="vertical-align:top;">:</td><td><div>True</div></td></tr><tr><td style="font-weight:bold;vertical-align:top;">wsgi.run_once</td><td style="vertical-align:top;">:</td><td><div>False</div></td></tr><tr><td style="font-weight:bold;vertical-align:top;">wsgi.url_scheme</td><td style="vertical-align:top;">:</td><td><div>http</div></td></tr><tr><td style="font-weight:bold;vertical-align:top;">wsgi.version</td><td style="vertical-align:top;">:</td><td><div><table><tr><td><div>1</div></td></tr><tr><td><div>0</div></td></tr></table></div></td></tr><tr><td style="font-weight:bold;vertical-align:top;">wsgi_errors</td><td style="vertical-align:top;">:</td><td><div>&lt;open file &#x27;&lt;stderr&gt;&#x27;, mode &#x27;w&#x27; at 0x1021201e0&gt;</div></td></tr><tr><td style="font-weight:bold;vertical-align:top;">wsgi_file_wrapper</td><td style="vertical-align:top;">:</td><td><div>&lt;class wsgiref.util.FileWrapper at 0x103090120&gt;</div></td></tr><tr><td style="font-weight:bold;vertical-align:top;">wsgi_input</td><td style="vertical-align:top;">:</td><td><div>&lt;socket._fileobject object at 0x1042eec50&gt;</div></td></tr><tr><td style="font-weight:bold;vertical-align:top;">wsgi_multiprocess</td><td style="vertical-align:top;">:</td><td><div>False</div></td></tr><tr><td style="font-weight:bold;vertical-align:top;">wsgi_multithread</td><td style="vertical-align:top;">:</td><td><div>True</div></td></tr><tr><td style="font-weight:bold;vertical-align:top;">wsgi_run_once</td><td style="vertical-align:top;">:</td><td><div>False</div></td></tr><tr><td style="font-weight:bold;vertical-align:top;">wsgi_url_scheme</td><td style="vertical-align:top;">:</td><td><div>http</div></td></tr><tr><td style="font-weight:bold;vertical-align:top;">wsgi_version</td><td style="vertical-align:top;">:</td><td><div><table><tr><td><div>1</div></td></tr><tr><td><div>0</div></td></tr></table></div></td></tr></table></div></td></tr><tr><td style="font-weight:bold;vertical-align:top;">extension</td><td style="vertical-align:top;">:</td><td><div>html</div></td></tr><tr><td style="font-weight:bold;vertical-align:top;">folder</td><td style="vertical-align:top;">:</td><td><div>/Users/Joshua/Git Repositories/CMPS 183/web2py/applications/Discuss/</div></td></tr><tr><td style="font-weight:bold;vertical-align:top;">function</td><td style="vertical-align:top;">:</td><td><div>newdiscussion</div></td></tr><tr><td style="font-weight:bold;vertical-align:top;">global_settings</td><td style="vertical-align:top;">:</td><td><div><table><tr><td style="font-weight:bold;vertical-align:top;">app_folders</td><td style="vertical-align:top;">:</td><td><div>set([&#x27;/Users/Joshua/Git Repositories/CMPS 183/web2py/applications/admin/&#x27;, &#x27;/Users/Joshua/Git Repositories/CMPS 183/web2py/applications/Discuss/&#x27;, &#x27;/Users/Joshua/Git Repositories/CMPS 183/web2py/applications/welcome/&#x27;])</div></td></tr><tr><td style="font-weight:bold;vertical-align:top;">applications_parent</td><td style="vertical-align:top;">:</td><td><div>/Users/Joshua/Git Repositories/CMPS 183/web2py</div></td></tr><tr><td style="font-weight:bold;vertical-align:top;">cmd_args</td><td style="vertical-align:top;">:</td><td><div><table></table></div></td></tr><tr><td style="font-weight:bold;vertical-align:top;">cmd_options</td><td style="vertical-align:top;">:</td><td><div>&lt;Values at 0x1030f51b8: {&#x27;verbose&#x27;: False, &#x27;ip&#x27;: &#x27;127.0.0.1&#x27;, &#x27;debuglevel&#x27;: 30, &#x27;with_scheduler&#x27;: False, &#x27;ips&#x27;: [&#x27;10.0.1.3&#x27;, &#x27;fe80::ba09:8aff:feb9:b16b%en1&#x27;], &#x27;shutdown_timeout&#x27;: 5, &#x27;taskbar&#x27;: False, &#x27;with_coverage&#x27;: False, &#x27;scheduler_groups&#x27;: None, &#x27;port&#x27;: 8800, &#x27;maxthreads&#x27;: None, &#x27;softcron&#x27;: False, &#x27;server_name&#x27;: &#x27;jMac-5K.local&#x27;, &#x27;bpython&#x27;: False, &#x27;nogui&#x27;: False, &#x27;pid_filename&#x27;: &#x27;httpserver.pid&#x27;, &#x27;print_errors&#x27;: True, &#x27;extcron&#x27;: False, &#x27;runcron&#x27;: False, &#x27;run_system_tests&#x27;: False, &#x27;test&#x27;: None, &#x27;folder&#x27;: &#x27;/Users/Joshua/Git Repositories/CMPS 183/web2py&#x27;, &#x27;config&#x27;: &#x27;&#x27;, &#x27;minthreads&#x27;: None, &#x27;shell&#x27;: None, &#x27;run&#x27;: &#x27;&#x27;, &#x27;log_filename&#x27;: &#x27;httpserver.log&#x27;, &#x27;profiler_dir&#x27;: None, &#x27;args&#x27;: [&#x27;&#x27;], &#x27;socket_timeout&#x27;: 5, &#x27;ssl_ca_certificate&#x27;: None, &#x27;scheduler&#x27;: None, &#x27;interfaces&#x27;: None, &#x27;ssl_private_key&#x27;: &#x27;&#x27;, &#x27;gae&#x27;: None, &#x27;password&#x27;: &#x27;helloclass&#x27;, &#x27;request_queue_size&#x27;: 5, &#x27;ssl_certificate&#x27;: &#x27;&#x27;, &#x27;cronjob&#x27;: False, &#x27;numthreads&#x27;: None, &#x27;quiet&#x27;: False, &#x27;import_models&#x27;: False, &#x27;timeout&#x27;: 10, &#x27;plain&#x27;: False, &#x27;nobanner&#x27;: False}&gt;</div></td></tr><tr><td style="font-weight:bold;vertical-align:top;">db_sessions</td><td style="vertical-align:top;">:</td><td><div>set([])</div></td></tr><tr><td style="font-weight:bold;vertical-align:top;">debugging</td><td style="vertical-align:top;">:</td><td><div>False</div></td></tr><tr><td style="font-weight:bold;vertical-align:top;">gluon_parent</td><td style="vertical-align:top;">:</td><td><div>/Users/Joshua/Git Repositories/CMPS 183/web2py</div></td></tr><tr><td style="font-weight:bold;vertical-align:top;">is_jython</td><td style="vertical-align:top;">:</td><td><div>False</div></td></tr><tr><td style="font-weight:bold;vertical-align:top;">is_pypy</td><td style="vertical-align:top;">:</td><td><div>False</div></td></tr><tr><td style="font-weight:bold;vertical-align:top;">is_source</td><td style="vertical-align:top;">:</td><td><div>True</div></td></tr><tr><td style="font-weight:bold;vertical-align:top;">local_hosts</td><td style="vertical-align:top;">:</td><td><div><table><tr><td><div>jMac-5K.local</div></td></tr><tr><td><div>::ffff:127.0.0.1</div></td></tr><tr><td><div>::1</div></td></tr><tr><td><div>10.0.1.3</div></td></tr><tr><td><div>127.0.0.1</div></td></tr><tr><td><div>fe80::ba09:8aff:feb9:b16b%en1</div></td></tr><tr><td><div>jmac-5k.local</div></td></tr></table></div></td></tr><tr><td style="font-weight:bold;vertical-align:top;">web2py_version</td><td style="vertical-align:top;">:</td><td><div>2.12.3-stable+timestamp.2015.08.19.00.18.03</div></td></tr></table></div></td></tr><tr><td style="font-weight:bold;vertical-align:top;">is_https</td><td style="vertical-align:top;">:</td><td><div>False</div></td></tr><tr><td style="font-weight:bold;vertical-align:top;">is_local</td><td style="vertical-align:top;">:</td><td><div>True</div></td></tr><tr><td style="font-weight:bold;vertical-align:top;">is_restful</td><td style="vertical-align:top;">:</td><td><div>False</div></td></tr><tr><td style="font-weight:bold;vertical-align:top;">is_sheduler</td><td style="vertical-align:top;">:</td><td><div>None</div></td></tr><tr><td style="font-weight:bold;vertical-align:top;">is_shell</td><td style="vertical-align:top;">:</td><td><div>None</div></td></tr><tr><td style="font-weight:bold;vertical-align:top;">now</td><td style="vertical-align:top;">:</td><td><div>datetime.datetime(2015, 12, 9, 15, 47, 41, 290091)</div></td></tr><tr><td style="font-weight:bold;vertical-align:top;">raw_args</td><td style="vertical-align:top;">:</td><td><div></div></td></tr><tr><td style="font-weight:bold;vertical-align:top;">raw_extension</td><td style="vertical-align:top;">:</td><td><div>None</div></td></tr><tr><td style="font-weight:bold;vertical-align:top;">url</td><td style="vertical-align:top;">:</td><td><div>/Discuss/default/newdiscussion</div></td></tr><tr><td style="font-weight:bold;vertical-align:top;">utcnow</td><td style="vertical-align:top;">:</td><td><div>datetime.datetime(2015, 12, 9, 23, 47, 41, 290097)</div></td></tr><tr><td style="font-weight:bold;vertical-align:top;">wsgi</td><td style="vertical-align:top;">:</td><td><div>&lt;gluon.main.LazyWSGI object at 0x104b22510&gt;</div></td></tr></table></div>'
tRp58
sS'frames'
p59
(lp60
(dp61
S'file'
p62
S'/Users/Joshua/Git Repositories/CMPS 183/web2py/gluon/restricted.py'
p63
sS'dump'
p64
(dp65
S'environment'
p66
S"{'A': <class 'gluon.html.A'>, 'ANY_OF': <class 'gluon.validators.ANY_OF'>, 'ASSIGNJS': <function ASSIGNJS>, 'AppConfig': <function AppConfig>, 'Auth': <class 'gluon.tools.Auth'>, 'B': <class 'gluon.html.B'>, 'BEAUTIFY': <class 'gluon.html.BEAUTIFY'>, 'BODY': <class 'gluon.html.BODY'>, 'BR': <class 'gluon.html.BR'>, 'BUTTON': <class 'gluon.html.BUTTON'>, ...}"
p67
sS'ccode'
p68
S'<code object <module> at 0x1043479b0, file "/Use...iscuss/views/default/newdiscussion.html", line 1>'
p69
ssS'lnum'
p70
I227
sS'lines'
p71
(dp72
I224
S'            ccode = code'
p73
sI225
S'        else:'
p74
sI226
S'            ccode = compile2(code, layer)'
p75
sI227
S'        exec ccode in environment'
p76
sI228
S'    except HTTP:'
p77
sI229
S'        raise'
p78
sI230
S'    except RestrictedError:'
p79
sI231
S'        # do not encapsulate (obfuscate) the original RestrictedError'
p80
sI222
S'    try:'
p81
sI223
S'        if isinstance(code, types.CodeType):'
p82
ssS'call'
p83
S'(code=r"response.write(\'<!DOCTYPE html>\\n\\n<head>\\n    <...        });\\n\\n\\t});\\n</script>\\n\', escape=False)", environment={\'A\': <class \'gluon.html.A\'>, \'ANY_OF\': <class \'gluon.validators.ANY_OF\'>, \'ASSIGNJS\': <function ASSIGNJS>, \'AppConfig\': <function AppConfig>, \'Auth\': <class \'gluon.tools.Auth\'>, \'B\': <class \'gluon.html.B\'>, \'BEAUTIFY\': <class \'gluon.html.BEAUTIFY\'>, \'BODY\': <class \'gluon.html.BODY\'>, \'BR\': <class \'gluon.html.BR\'>, \'BUTTON\': <class \'gluon.html.BUTTON\'>, ...}, layer=\'/Users/Joshua/Git Repositories/CMPS 183/web2py/applications/Discuss/views/default/newdiscussion.html\')'
p84
sS'func'
p85
S'restricted'
p86
sa(dp87
g62
S'/Users/Joshua/Git Repositories/CMPS 183/web2py/applications/Discuss/views/default/newdiscussion.html'
p88
sg64
(dp89
S'form'
p90
S'undefined'
p91
ssg70
I69
sg71
(dp92
I64
S"    response.write('\\n            ', escape=False)"
p93
sI65
S"    response.write(A('Sign Out', _class='btn', _id='signout-button', _href=URL('default', 'user', args=['logout'], vars=dict(_next=URL('default')))))"
p94
sI66
S"    response.write('\\n        ', escape=False)"
p95
sI67
S'    pass'
p96
sI68
S'response.write(\'\\n        </div>\\n\\t</nav>\\n\\t<main>\\n\\t\\t<div id="new-discussion-form-container" class="flex-column center-aligned form-container">\\n\\t\\t\\t<div id="new-discussion-greeting" class="form-greeting">\\n\\t\\t\\t\\t<h1>New Discussion</h1>\\n\\t\\t\\t</div>\\n\\t\\t\\t\', escape=False)'
p97
sI69
S'response.write(form.custom.begin)'
p98
sI70
S'response.write(\'\\n\\t\\t\\t<div class="flex-column center-aligned form-column">\\n\\t\\t\\t\\t<div class="flex-column form-column full-width" id="register-form">\\n\\t\\t\\t\\t\\t<div class="flex-column form-row space-between center-aligned" id="discussionname-row">\\n\\t\\t\\t\\t\\t\\t<h4>What do you want to discuss?</h4>\\n\\t\\t\\t\\t\\t\\t<input type="text" class="text-widget custom-form form-control" id="form-discussionname" name="new_discussion_name" value="{% discussion_name %}" maxlength="25" data-boardid=""/>\\n\\t\\t\\t\\t\\t</div>\\n\\t\\t\\t\\t\\t<div class="flex-column form-row space-between center-aligned" id="discussiondescription-row">\\n\\t\\t\\t\\t\\t\\t<h4>Short description of your dicsussion</h4>\\n\\t\\t\\t\\t\\t\\t<textarea name="new_discussion_description" class="new_discussion_description form-control" value="{% discussion_description %}" cols="40" rows="4" maxlength="130"></textarea>\\n\\t\\t\\t\\t\\t</div>\\n\\t\\t\\t\\t\\t<div class="flex-column form-row space-between center-aligned" id="discussionlocation-row">\\n\\t\\t\\t\\t\\t\\t<h4>City <i>(Optional)</i></h4>\\n\\t\\t\\t\\t\\t\\t<input type="text" class="text-widget custom-form form-control" id="form-discussionlocation" name="new_discussion_location" value="{% discussion_location %}" maxlength="50" data-boardid=""/>\\n\\t\\t\\t\\t\\t</div>\\n\\t\\t\\t\\t\\t<div class="flex-column form-row space-between center-aligned" id="bannerphotourl-row">\\n\\t\\t\\t\\t\\t\\t<h4>Banner Photo URL</h4>\\n\\t\\t\\t\\t\\t\\t<input type="text" class="text-widget custom-form form-control" id="form-discussionlocation" name="new_discussion_location" value="{% banner_photo_url %}" data-boardid=""/>\\n\\t\\t\\t\\t\\t</div>\\n\\t\\t\\t\\t\\t<button class="btn blue-button" id="submit-button" on-click="submit-button">Submit</button>\\n\\t\\t\\t\\t</div>\\n\\t\\t\\t</div>\\n\\t\\t\\t\', escape=False)'
p99
sI71
S'response.write(form.custom.end)'
p100
sI72
S'response.write(\'\\n\\t\\t\\t</div>\\n\\t</main>\\n</script>\\n\\n<script>\\n\\t$(function() {\\n\\t\\t// Ractive object\\n\\t\\tvar BODY = new Ractive({\\n\\t\\t\\tel: \\\'#new-discussion-target\\\',\\n\\t\\t\\ttemplate: \\\'#new-discussion-template\\\',\\n\\t\\t\\tdelimiters: [\\\'{%\\\', \\\'%}\\\'],\\n\\t\\t\\ttripleDelimiters: [\\\'{%%\\\', \\\'%%}\\\'],\\n\\t\\t\\tdata: {\\n\\t\\t\\t\\tdiscussion_name: "",\\n\\t\\t\\t\\tdiscussion_description: "",\\n\\t\\t\\t\\tdiscussion_location: "",\\n\\t\\t\\t\\tbanner_photo_url: "http://www.cocc.edu/uploadedImages/Departments_/ITS/Computer_Labs/20141104_133038.jpg"\\n\\t\\t\\t\\tdiscussion_id: "\', escape=False)'
p101
sI73
S'response.write(discussion_id)'
p102
sI74
S'response.write(\'"\\n\\t\\t\\t}\\n\\t\\t});\\n\\n\\t\\t//To retrieve the time in UTC string format\\n\\t\\tfunction get_UTC_String() {\\n\\t\\t\\tvar date = new Date();\\n\\t\\t\\treturn date.toUTCString();\\n\\t\\t}\\n\\n\\t\\t//Makes the date more readable and in user\\\'s time zone.\\n\\t\\tfunction get_pretty_time() {\\n\\t\\t\\tvar date = new Date();\\n\\t\\t\\tvar full_date = date.toString();\\n\\t\\t\\tvar split_date = full_date.split(" ");\\n\\t\\t\\tvar split_time = split_date[4].split(":");\\n\\t\\t\\treturn split_date[1] + " " + split_date[2] + " " + split_time[0] + ":" + split_time[1];\\n\\t\\t}\\n\\n\\n\\t\\tfunction send() {\\n\\t\\t\\t$.ajax("\', escape=False)'
p103
sI75
S"response.write(URL('default', 'add_discussion', user_signature=True))"
p104
sI76
S'response.write(\'",\\n\\t\\t\\t\\t\\t{\\n\\t\\t\\t\\t\\t\\tdata: {\\n\\t\\t\\t\\t\\t\\t\\tdiscussion_name: BODY.get(\\\'discussion_name\\\'), //request.vars.discussion_name\\n\\t\\t\\t\\t\\t\\t\\tdiscussion_description: BODY.get(\\\'discussion_description\\\'), //request.vars.discussion_description\\n\\t\\t\\t\\t\\t\\t\\tdiscussion_location: BODY.get(\\\'discussion_location\\\'), //request.vars.discussion_location\\n\\t\\t\\t\\t\\t\\t\\tbanner_photo_url: BODY.get(\\\'banner_photo_url\\\'), //request.vars.banner_photo_url\\n\\t\\t\\t\\t\\t\\t\\tdiscussion_id: BODY.get(\\\'discussion_id\\\'), //request.vars.discussion_id\\n\\t\\t\\t\\t\\t\\t\\tdiscussion_last_updated: get_UTC_String(), //request.vars.discussion_last_updated\\n\\t\\t\\t\\t\\t\\t\\tdiscussion_pretty_updated: get_pretty_time() //request.vars.discussion_pretty_updated\\n\\t\\t\\t\\t\\t\\t},\\n\\t\\t\\t\\t\\t\\tmethod: \\\'POST\\\',\\n\\t\\t\\t\\t\\t\\tsuccess: function() {},\\n\\t\\t\\t\\t\\t\\terror: function() {}\\n\\t\\t\\t\\t\\t}\\n\\t\\t\\t);\\n\\t\\t}\\n\\n\\t\\tBODY.on("submit-button", function(e) {\\n            send();\\n        });\\n\\n\\t});\\n</script>\\n\', escape=False)'
p105
sI60
S"response.write('\\n        ', escape=False)"
p106
sI61
S'if auth.is_logged_in():'
p107
sI62
S"    response.write('\\n            ', escape=False)"
p108
sI63
S"    response.write(A('My Profile', _class='btn', _id='myprofile-button', _href=URL('default', 'profile')))"
p109
ssg83
S'()'
p110
sg85
S'<module>'
p111
sasS'pyver'
p112
S'Python 2.7.10: /usr/bin/python (prefix: /System/Library/Frameworks/Python.framework/Versions/2.7)'
p113
sS'session'
p114
g57
(S's\xf2\t\x00\x00<div><table><tr><td style="font-weight:bold;vertical-align:top;">auth</td><td style="vertical-align:top;">:</td><td><div><table><tr><td style="font-weight:bold;vertical-align:top;">expiration</td><td style="vertical-align:top;">:</td><td><div>3600</div></td></tr><tr><td style="font-weight:bold;vertical-align:top;">hmac_key</td><td style="vertical-align:top;">:</td><td><div>c27e6491-173b-4c20-972e-ccbf861599e7</div></td></tr><tr><td style="font-weight:bold;vertical-align:top;">last_visit</td><td style="vertical-align:top;">:</td><td><div>datetime.datetime(2015, 12, 9, 15, 47, 41, 290091)</div></td></tr><tr><td style="font-weight:bold;vertical-align:top;">remember_me</td><td style="vertical-align:top;">:</td><td><div>False</div></td></tr><tr><td style="font-weight:bold;vertical-align:top;">user</td><td style="vertical-align:top;">:</td><td><div><table><tr><td style="font-weight:bold;vertical-align:top;">age</td><td style="vertical-align:top;">:</td><td><div>27L</div></td></tr><tr><td style="font-weight:bold;vertical-align:top;">city</td><td style="vertical-align:top;">:</td><td><div>Santa Cruz</div></td></tr><tr><td style="font-weight:bold;vertical-align:top;">email</td><td style="vertical-align:top;">:</td><td><div>jtrwallace@mac.com</div></td></tr><tr><td style="font-weight:bold;vertical-align:top;">first_name</td><td style="vertical-align:top;">:</td><td><div>Joshua</div></td></tr><tr><td style="font-weight:bold;vertical-align:top;">id</td><td style="vertical-align:top;">:</td><td><div>1L</div></td></tr><tr><td style="font-weight:bold;vertical-align:top;">last_name</td><td style="vertical-align:top;">:</td><td><div>Wallace</div></td></tr><tr><td style="font-weight:bold;vertical-align:top;">registration_id</td><td style="vertical-align:top;">:</td><td><div></div></td></tr><tr><td style="font-weight:bold;vertical-align:top;">registration_key</td><td style="vertical-align:top;">:</td><td><div></div></td></tr><tr><td style="font-weight:bold;vertical-align:top;">reset_password_key</td><td style="vertical-align:top;">:</td><td><div></div></td></tr></table></div></td></tr><tr><td style="font-weight:bold;vertical-align:top;">user_groups</td><td style="vertical-align:top;">:</td><td><div><table><tr><td style="font-weight:bold;vertical-align:top;">1</td><td style="vertical-align:top;">:</td><td><div>user_1</div></td></tr></table></div></td></tr></table></div></td></tr><tr><td style="font-weight:bold;vertical-align:top;">flash</td><td style="vertical-align:top;">:</td><td><div>None</div></td></tr></table></div>'
tRp115
sS'etype'
p116
S"<type 'exceptions.NameError'>"
p117
sS'date'
p118
S'Wed Dec  9 15:47:41 2015'
p119
sS'response'
p120
g57
(S's\xb3@\x00\x00<div><table><tr><td style="font-weight:bold;vertical-align:top;">body</td><td style="vertical-align:top;">:</td><td><div>&lt;cStringIO.StringO object at 0x104a230d8&gt;</div></td></tr><tr><td style="font-weight:bold;vertical-align:top;">cookies</td><td style="vertical-align:top;">:</td><td><div><table><tr><td style="font-weight:bold;vertical-align:top;">session_id_discuss</td><td style="vertical-align:top;">:</td><td><div>127.0.0.1-11b14645-ec0c-450e-8d3a-a63501691c54<table><tr><td style="font-weight:bold;vertical-align:top;">comment</td><td style="vertical-align:top;">:</td><td><div></div></td></tr><tr><td style="font-weight:bold;vertical-align:top;">domain</td><td style="vertical-align:top;">:</td><td><div></div></td></tr><tr><td style="font-weight:bold;vertical-align:top;">expires</td><td style="vertical-align:top;">:</td><td><div></div></td></tr><tr><td style="font-weight:bold;vertical-align:top;">httponly</td><td style="vertical-align:top;">:</td><td><div></div></td></tr><tr><td style="font-weight:bold;vertical-align:top;">max-age</td><td style="vertical-align:top;">:</td><td><div></div></td></tr><tr><td style="font-weight:bold;vertical-align:top;">path</td><td style="vertical-align:top;">:</td><td><div>/</div></td></tr><tr><td style="font-weight:bold;vertical-align:top;">secure</td><td style="vertical-align:top;">:</td><td><div></div></td></tr><tr><td style="font-weight:bold;vertical-align:top;">version</td><td style="vertical-align:top;">:</td><td><div></div></td></tr></table></div></td></tr></table></div></td></tr><tr><td style="font-weight:bold;vertical-align:top;">delimiters</td><td style="vertical-align:top;">:</td><td><div><table><tr><td><div>{{</div></td></tr><tr><td><div>}}</div></td></tr></table></div></td></tr><tr><td style="font-weight:bold;vertical-align:top;">files</td><td style="vertical-align:top;">:</td><td><div><table><tr><td><div>/Discuss/static/js/jquery.js</div></td></tr><tr><td><div>/Discuss/static/css/calendar.css</div></td></tr><tr><td><div>/Discuss/static/js/calendar.js</div></td></tr><tr><td><div>/Discuss/static/js/web2py.js</div></td></tr></table></div></td></tr><tr><td style="font-weight:bold;vertical-align:top;">flash</td><td style="vertical-align:top;">:</td><td><div></div></td></tr><tr><td style="font-weight:bold;vertical-align:top;">form_label_separator</td><td style="vertical-align:top;">:</td><td><div></div></td></tr><tr><td style="font-weight:bold;vertical-align:top;">formstyle</td><td style="vertical-align:top;">:</td><td><div>bootstrap3_inline</div></td></tr><tr><td style="font-weight:bold;vertical-align:top;">generic_patterns</td><td style="vertical-align:top;">:</td><td><div><table><tr><td><div>*</div></td></tr></table></div></td></tr><tr><td style="font-weight:bold;vertical-align:top;">google_analytics_id</td><td style="vertical-align:top;">:</td><td><div>None</div></td></tr><tr><td style="font-weight:bold;vertical-align:top;">headers</td><td style="vertical-align:top;">:</td><td><div><table><tr><td style="font-weight:bold;vertical-align:top;">X-Powered-By</td><td style="vertical-align:top;">:</td><td><div>web2py</div></td></tr></table></div></td></tr><tr><td style="font-weight:bold;vertical-align:top;">logo</td><td style="vertical-align:top;">:</td><td><div><a class="navbar-brand" href="http://www.web2py.com/" id="web2py-logo"><b>web<span>2</span>py</b>&trade;&nbsp;</a></div></td></tr><tr><td style="font-weight:bold;vertical-align:top;">menu</td><td style="vertical-align:top;">:</td><td><div><table><tr><td><div><table><tr><td><div>Home</div></td></tr><tr><td><div>False</div></td></tr><tr><td><div>/Discuss/default/index</div></td></tr><tr><td><div><table></table></div></td></tr></table></div></td></tr><tr><td><div><table><tr><td><div>My Sites</div></td></tr><tr><td><div>False</div></td></tr><tr><td><div>/admin/default/site</div></td></tr></table></div></td></tr><tr><td><div><table><tr><td><div>This App</div></td></tr><tr><td><div>False</div></td></tr><tr><td><div>#</div></td></tr><tr><td><div><table><tr><td><div><table><tr><td><div>Design</div></td></tr><tr><td><div>False</div></td></tr><tr><td><div>/admin/default/design/Discuss</div></td></tr></table></div></td></tr><tr><td><div><li class="divider"></li></div></td></tr><tr><td><div><table><tr><td><div>Controller</div></td></tr><tr><td><div>False</div></td></tr><tr><td><div>/admin/default/edit/Discuss/controllers/default.py</div></td></tr></table></div></td></tr><tr><td><div><table><tr><td><div>View</div></td></tr><tr><td><div>False</div></td></tr><tr><td><div>/admin/default/edit/Discuss/views/default/newdiscussion.html</div></td></tr></table></div></td></tr><tr><td><div><table><tr><td><div>DB Model</div></td></tr><tr><td><div>False</div></td></tr><tr><td><div>/admin/default/edit/Discuss/models/db.py</div></td></tr></table></div></td></tr><tr><td><div><table><tr><td><div>Menu Model</div></td></tr><tr><td><div>False</div></td></tr><tr><td><div>/admin/default/edit/Discuss/models/menu.py</div></td></tr></table></div></td></tr><tr><td><div><table><tr><td><div>Config.ini</div></td></tr><tr><td><div>False</div></td></tr><tr><td><div>/admin/default/edit/Discuss/private/appconfig.ini</div></td></tr></table></div></td></tr><tr><td><div><table><tr><td><div>Layout</div></td></tr><tr><td><div>False</div></td></tr><tr><td><div>/admin/default/edit/Discuss/views/layout.html</div></td></tr></table></div></td></tr><tr><td><div><table><tr><td><div>Stylesheet</div></td></tr><tr><td><div>False</div></td></tr><tr><td><div>/admin/default/edit/Discuss/static/css/web2py-bootstrap3.css</div></td></tr></table></div></td></tr><tr><td><div><table><tr><td><div>Database</div></td></tr><tr><td><div>False</div></td></tr><tr><td><div>/Discuss/appadmin/index</div></td></tr></table></div></td></tr><tr><td><div><table><tr><td><div>Errors</div></td></tr><tr><td><div>False</div></td></tr><tr><td><div>/admin/default/errors/Discuss</div></td></tr></table></div></td></tr><tr><td><div><table><tr><td><div>About</div></td></tr><tr><td><div>False</div></td></tr><tr><td><div>/admin/default/about/Discuss</div></td></tr></table></div></td></tr></table></div></td></tr></table></div></td></tr><tr><td><div><table><tr><td><div>web2py.com</div></td></tr><tr><td><div>False</div></td></tr><tr><td><div>#</div></td></tr><tr><td><div><table><tr><td><div><table><tr><td><div>Download</div></td></tr><tr><td><div>False</div></td></tr><tr><td><div>http://www.web2py.com/examples/default/download</div></td></tr></table></div></td></tr><tr><td><div><table><tr><td><div>Support</div></td></tr><tr><td><div>False</div></td></tr><tr><td><div>http://www.web2py.com/examples/default/support</div></td></tr></table></div></td></tr><tr><td><div><table><tr><td><div>Demo</div></td></tr><tr><td><div>False</div></td></tr><tr><td><div>http://web2py.com/demo_admin</div></td></tr></table></div></td></tr><tr><td><div><table><tr><td><div>Quick Examples</div></td></tr><tr><td><div>False</div></td></tr><tr><td><div>http://web2py.com/examples/default/examples</div></td></tr></table></div></td></tr><tr><td><div><table><tr><td><div>FAQ</div></td></tr><tr><td><div>False</div></td></tr><tr><td><div>http://web2py.com/AlterEgo</div></td></tr></table></div></td></tr><tr><td><div><table><tr><td><div>Videos</div></td></tr><tr><td><div>False</div></td></tr><tr><td><div>http://www.web2py.com/examples/default/videos/</div></td></tr></table></div></td></tr><tr><td><div><table><tr><td><div>Free Applications</div></td></tr><tr><td><div>False</div></td></tr><tr><td><div>http://web2py.com/appliances</div></td></tr></table></div></td></tr><tr><td><div><table><tr><td><div>Plugins</div></td></tr><tr><td><div>False</div></td></tr><tr><td><div>http://web2py.com/plugins</div></td></tr></table></div></td></tr><tr><td><div><table><tr><td><div>Recipes</div></td></tr><tr><td><div>False</div></td></tr><tr><td><div>http://web2pyslices.com/</div></td></tr></table></div></td></tr></table></div></td></tr></table></div></td></tr><tr><td><div><table><tr><td><div>Documentation</div></td></tr><tr><td><div>False</div></td></tr><tr><td><div>#</div></td></tr><tr><td><div><table><tr><td><div><table><tr><td><div>Online book</div></td></tr><tr><td><div>False</div></td></tr><tr><td><div>http://www.web2py.com/book</div></td></tr></table></div></td></tr><tr><td><div><li class="divider"></li></div></td></tr><tr><td><div><table><tr><td><div>Preface</div></td></tr><tr><td><div>False</div></td></tr><tr><td><div>http://www.web2py.com/book/default/chapter/00</div></td></tr></table></div></td></tr><tr><td><div><table><tr><td><div>Introduction</div></td></tr><tr><td><div>False</div></td></tr><tr><td><div>http://www.web2py.com/book/default/chapter/01</div></td></tr></table></div></td></tr><tr><td><div><table><tr><td><div>Python</div></td></tr><tr><td><div>False</div></td></tr><tr><td><div>http://www.web2py.com/book/default/chapter/02</div></td></tr></table></div></td></tr><tr><td><div><table><tr><td><div>Overview</div></td></tr><tr><td><div>False</div></td></tr><tr><td><div>http://www.web2py.com/book/default/chapter/03</div></td></tr></table></div></td></tr><tr><td><div><table><tr><td><div>The Core</div></td></tr><tr><td><div>False</div></td></tr><tr><td><div>http://www.web2py.com/book/default/chapter/04</div></td></tr></table></div></td></tr><tr><td><div><table><tr><td><div>The Views</div></td></tr><tr><td><div>False</div></td></tr><tr><td><div>http://www.web2py.com/book/default/chapter/05</div></td></tr></table></div></td></tr><tr><td><div><table><tr><td><div>Database</div></td></tr><tr><td><div>False</div></td></tr><tr><td><div>http://www.web2py.com/book/default/chapter/06</div></td></tr></table></div></td></tr><tr><td><div><table><tr><td><div>Forms and Validators</div></td></tr><tr><td><div>False</div></td></tr><tr><td><div>http://www.web2py.com/book/default/chapter/07</div></td></tr></table></div></td></tr><tr><td><div><table><tr><td><div>Email and SMS</div></td></tr><tr><td><div>False</div></td></tr><tr><td><div>http://www.web2py.com/book/default/chapter/08</div></td></tr></table></div></td></tr><tr><td><div><table><tr><td><div>Access Control</div></td></tr><tr><td><div>False</div></td></tr><tr><td><div>http://www.web2py.com/book/default/chapter/09</div></td></tr></table></div></td></tr><tr><td><div><table><tr><td><div>Services</div></td></tr><tr><td><div>False</div></td></tr><tr><td><div>http://www.web2py.com/book/default/chapter/10</div></td></tr></table></div></td></tr><tr><td><div><table><tr><td><div>Ajax Recipes</div></td></tr><tr><td><div>False</div></td></tr><tr><td><div>http://www.web2py.com/book/default/chapter/11</div></td></tr></table></div></td></tr><tr><td><div><table><tr><td><div>Components and Plugins</div></td></tr><tr><td><div>False</div></td></tr><tr><td><div>http://www.web2py.com/book/default/chapter/12</div></td></tr></table></div></td></tr><tr><td><div><table><tr><td><div>Deployment Recipes</div></td></tr><tr><td><div>False</div></td></tr><tr><td><div>http://www.web2py.com/book/default/chapter/13</div></td></tr></table></div></td></tr><tr><td><div><table><tr><td><div>Other Recipes</div></td></tr><tr><td><div>False</div></td></tr><tr><td><div>http://www.web2py.com/book/default/chapter/14</div></td></tr></table></div></td></tr><tr><td><div><table><tr><td><div>Helping web2py</div></td></tr><tr><td><div>False</div></td></tr><tr><td><div>http://www.web2py.com/book/default/chapter/15</div></td></tr></table></div></td></tr><tr><td><div><table><tr><td><div>Buy web2py\'s book</div></td></tr><tr><td><div>False</div></td></tr><tr><td><div>http://stores.lulu.com/web2py</div></td></tr></table></div></td></tr></table></div></td></tr></table></div></td></tr><tr><td><div><table><tr><td><div>Community</div></td></tr><tr><td><div>False</div></td></tr><tr><td><div>None</div></td></tr><tr><td><div><table><tr><td><div><table><tr><td><div>Groups</div></td></tr><tr><td><div>False</div></td></tr><tr><td><div>http://www.web2py.com/examples/default/usergroups</div></td></tr></table></div></td></tr><tr><td><div><table><tr><td><div>Twitter</div></td></tr><tr><td><div>False</div></td></tr><tr><td><div>http://twitter.com/web2py</div></td></tr></table></div></td></tr><tr><td><div><table><tr><td><div>Live Chat</div></td></tr><tr><td><div>False</div></td></tr><tr><td><div>http://webchat.freenode.net/?channels=web2py</div></td></tr></table></div></td></tr></table></div></td></tr></table></div></td></tr></table></div></td></tr><tr><td style="font-weight:bold;vertical-align:top;">meta</td><td style="vertical-align:top;">:</td><td><div><table><tr><td style="font-weight:bold;vertical-align:top;">author</td><td style="vertical-align:top;">:</td><td><div>Your Name &lt;you@example.com&gt;</div></td></tr><tr><td style="font-weight:bold;vertical-align:top;">description</td><td style="vertical-align:top;">:</td><td><div>a cool new app</div></td></tr><tr><td style="font-weight:bold;vertical-align:top;">generator</td><td style="vertical-align:top;">:</td><td><div>Web2py Web Framework</div></td></tr><tr><td style="font-weight:bold;vertical-align:top;">keywords</td><td style="vertical-align:top;">:</td><td><div>web2py, python, framework</div></td></tr></table></div></td></tr><tr><td style="font-weight:bold;vertical-align:top;">models_to_run</td><td style="vertical-align:top;">:</td><td><div><table><tr><td><div>^\\w+\\.py$</div></td></tr><tr><td><div>^default/\\w+\\.py$</div></td></tr><tr><td><div>^default/newdiscussion/\\w+\\.py$</div></td></tr></table></div></td></tr><tr><td style="font-weight:bold;vertical-align:top;">postprocessing</td><td style="vertical-align:top;">:</td><td><div><table></table></div></td></tr><tr><td style="font-weight:bold;vertical-align:top;">session_client</td><td style="vertical-align:top;">:</td><td><div>127.0.0.1</div></td></tr><tr><td style="font-weight:bold;vertical-align:top;">session_cookie_compression_level</td><td style="vertical-align:top;">:</td><td><div>None</div></td></tr><tr><td style="font-weight:bold;vertical-align:top;">session_cookie_expires</td><td style="vertical-align:top;">:</td><td><div>None</div></td></tr><tr><td style="font-weight:bold;vertical-align:top;">session_cookie_key</td><td style="vertical-align:top;">:</td><td><div>None</div></td></tr><tr><td style="font-weight:bold;vertical-align:top;">session_data_name</td><td style="vertical-align:top;">:</td><td><div>session_data_discuss</div></td></tr><tr><td style="font-weight:bold;vertical-align:top;">session_file</td><td style="vertical-align:top;">:</td><td><div>&lt;open file &#x27;/Users/Joshua/Git Repositories/CMPS 183/web2py/applications/Discuss/sessions/030/1eb/127.0.0.1-11b14645-ec0c-450e-8d3a-a63501691c54&#x27;, mode &#x27;rb+&#x27; at 0x104a58a50&gt;</div></td></tr><tr><td style="font-weight:bold;vertical-align:top;">session_filename</td><td style="vertical-align:top;">:</td><td><div>/Users/Joshua/Git Repositories/CMPS 183/web2py/applications/Discuss/sessions/127.0.0.1-11b14645-ec0c-450e-8d3a-a63501691c54</div></td></tr><tr><td style="font-weight:bold;vertical-align:top;">session_hash</td><td style="vertical-align:top;">:</td><td><div>157ccf82e6d1f59105f0c3a395a745a0</div></td></tr><tr><td style="font-weight:bold;vertical-align:top;">session_id</td><td style="vertical-align:top;">:</td><td><div>127.0.0.1-11b14645-ec0c-450e-8d3a-a63501691c54</div></td></tr><tr><td style="font-weight:bold;vertical-align:top;">session_id_name</td><td style="vertical-align:top;">:</td><td><div>session_id_discuss</div></td></tr><tr><td style="font-weight:bold;vertical-align:top;">session_locked</td><td style="vertical-align:top;">:</td><td><div>True</div></td></tr><tr><td style="font-weight:bold;vertical-align:top;">session_masterapp</td><td style="vertical-align:top;">:</td><td><div>Discuss</div></td></tr><tr><td style="font-weight:bold;vertical-align:top;">session_new</td><td style="vertical-align:top;">:</td><td><div>False</div></td></tr><tr><td style="font-weight:bold;vertical-align:top;">session_storage_type</td><td style="vertical-align:top;">:</td><td><div>file</div></td></tr><tr><td style="font-weight:bold;vertical-align:top;">status</td><td style="vertical-align:top;">:</td><td><div>200</div></td></tr><tr><td style="font-weight:bold;vertical-align:top;">subtitle</td><td style="vertical-align:top;">:</td><td><div></div></td></tr><tr><td style="font-weight:bold;vertical-align:top;">title</td><td style="vertical-align:top;">:</td><td><div>Discuss</div></td></tr><tr><td style="font-weight:bold;vertical-align:top;">view</td><td style="vertical-align:top;">:</td><td><div>default/newdiscussion.html</div></td></tr></table></div>'
tRp121
sS'locals'
p122
(dp123
S'Service'
p124
S"<class 'gluon.tools.Service'>"
p125
sS'OBJECT'
p126
S"<class 'gluon.html.OBJECT'>"
p127
sS'SQLDB'
p128
S"<class 'pydal.base.DAL'>"
p129
sg114
S"<Storage {'auth': <Storage {'remember_me': False...1b76e', 'e3734f25-9391-4d6a-a561-2ea9c242f13e']}>"
p130
sS'LINK'
p131
S"<class 'gluon.html.LINK'>"
p132
sS'BR'
p133
S"<class 'gluon.html.BR'>"
p134
sS'local_import'
p135
S'<function <lambda>>'
p136
sS'OPTGROUP'
p137
S"<class 'gluon.html.OPTGROUP'>"
p138
sS'__package__'
p139
S'None'
p140
sS'PRE'
p141
S"<class 'gluon.html.PRE'>"
p142
sS'IS_INT_IN_RANGE'
p143
S"<class 'gluon.validators.IS_INT_IN_RANGE'>"
p144
sS'IS_LOWER'
p145
S"<class 'gluon.validators.IS_LOWER'>"
p146
sS'IS_STRONG'
p147
S"<class 'gluon.validators.IS_STRONG'>"
p148
sS'cache'
p149
S'<gluon.cache.Cache object>'
p150
sS'IS_IN_DB'
p151
S"<class 'gluon.validators.IS_IN_DB'>"
p152
sS'TAG'
p153
S'<gluon.html.__TAG__ object>'
p154
sS'SQLField'
p155
S"<class 'pydal.objects.Field'>"
p156
sS'mail'
p157
S'<gluon.tools.Mail object>'
p158
sS'BODY'
p159
S"<class 'gluon.html.BODY'>"
p160
sS'IS_DATE_IN_RANGE'
p161
S"<class 'gluon.validators.IS_DATE_IN_RANGE'>"
p162
sS'IFRAME'
p163
S"<class 'gluon.html.IFRAME'>"
p164
sS'URL'
p165
S'<function URL>'
p166
sS'__file__'
p167
S"'/Users/Joshua/Git Repositories/CMPS 183/web2py/applications/Discuss/views/default/newdiscussion.html'"
p168
sS'db'
p169
S'<DAL uri="sqlite://storage.sqlite">'
p170
sS'auth'
p171
S'<gluon.tools.Auth object>'
p172
sS'P'
S"<class 'gluon.html.P'>"
p173
sS'TFOOT'
p174
S"<class 'gluon.html.TFOOT'>"
p175
sS'XHTML'
p176
S"<class 'gluon.html.XHTML'>"
p177
sS'ON'
p178
S'True'
p179
sS'OL'
p180
S"<class 'gluon.html.OL'>"
p181
sS'TEXTAREA'
p182
S"<class 'gluon.html.TEXTAREA'>"
p183
sS'MENU'
p184
S"<class 'gluon.html.MENU'>"
p185
sS'IS_IMAGE'
p186
S"<class 'gluon.validators.IS_IMAGE'>"
p187
sS'EM'
p188
S"<class 'gluon.html.EM'>"
p189
sS'CODE'
p190
S"<class 'gluon.html.CODE'>"
p191
sS'HTTP'
p192
S"<class 'gluon.http.HTTP'>"
p193
sS'HR'
p194
S"<class 'gluon.html.HR'>"
p195
sS'IS_DATETIME'
p196
S"<class 'gluon.validators.IS_DATETIME'>"
p197
sS'STYLE'
p198
S"<class 'gluon.html.STYLE'>"
p199
sS'LABEL'
p200
S"<class 'gluon.html.LABEL'>"
p201
sS'CLEANUP'
p202
S"<class 'gluon.validators.CLEANUP'>"
p203
sS'plugins'
p204
S'<gluon.tools.PluginManager object>'
p205
sS'SELECT'
p206
S"<class 'gluon.html.SELECT'>"
p207
sS'CENTER'
p208
S"<class 'gluon.html.CENTER'>"
p209
sS'Auth'
p210
S"<class 'gluon.tools.Auth'>"
p211
sS'DEVELOPMENT_MENU'
p212
g179
sS'__builtins__'
p213
S"{'ArithmeticError': <type 'exceptions.ArithmeticError'>, 'AssertionError': <type 'exceptions.AssertionError'>, 'AttributeError': <type 'exceptions.AttributeError'>, 'BaseException': <type 'exceptions.BaseException'>, 'BufferError': <type 'exceptions.BufferError'>, 'BytesWarning': <type 'exceptions.BytesWarning'>, 'DeprecationWarning': <type 'exceptions.DeprecationWarning'>, 'EOFError': <type 'exceptions.EOFError'>, 'Ellipsis': Ellipsis, 'EnvironmentError': <type 'exceptions.EnvironmentError'>, ...}"
p214
sS'HTML'
p215
S"<class 'gluon.html.HTML'>"
p216
sS'SQLFORM'
p217
S"<class 'gluon.sqlhtml.SQLFORM'>"
p218
sS'LOAD'
p219
S'<function LOAD>'
p220
sS'redirect'
p221
S'<function redirect>'
p222
sS'FIELDSET'
p223
S"<class 'gluon.html.FIELDSET'>"
p224
sS'IS_EQUAL_TO'
p225
S"<class 'gluon.validators.IS_EQUAL_TO'>"
p226
sS'embed64'
p227
S'<function embed64>'
p228
sS'IS_LIST_OF'
p229
S"<class 'gluon.validators.IS_LIST_OF'>"
p230
sS'INPUT'
p231
S"<class 'gluon.html.INPUT'>"
p232
sS'EMBED'
p233
S"<class 'gluon.html.EMBED'>"
p234
sS'_'
S'<function _>'
p235
sS'myconf'
p236
S"{'forms': {'formstyle': 'bootstrap3_inline', 'se...'you@gmail.com', 'server': 'smtp.gmail.com:587'}}"
p237
sS'H2'
p238
S"<class 'gluon.html.H2'>"
p239
sS'H3'
p240
S"<class 'gluon.html.H3'>"
p241
sS'AppConfig'
p242
S'<function AppConfig>'
p243
sS'H1'
p244
S"<class 'gluon.html.H1'>"
p245
sS'H6'
p246
S"<class 'gluon.html.H6'>"
p247
sS'H4'
p248
S"<class 'gluon.html.H4'>"
p249
sS'H5'
p250
S"<class 'gluon.html.H5'>"
p251
sS'UL'
p252
S"<class 'gluon.html.UL'>"
p253
sS'IS_UPPER'
p254
S"<class 'gluon.validators.IS_UPPER'>"
p255
sS'xmlescape'
p256
S'<function xmlescape>'
p257
sS'IS_TIME'
p258
S"<class 'gluon.validators.IS_TIME'>"
p259
sS'OPTION'
p260
S"<class 'gluon.html.OPTION'>"
p261
sS'TITLE'
p262
S"<class 'gluon.html.TITLE'>"
p263
sS'CRYPT'
p264
S"<class 'gluon.validators.CRYPT'>"
p265
sS'IS_EMPTY_OR'
p266
S"<class 'gluon.validators.IS_EMPTY_OR'>"
p267
sS'MARKMIN'
p268
S"<class 'gluon.html.MARKMIN'>"
p269
sS'__name__'
p270
S"'__restricted__'"
p271
sS'STRONG'
p272
S"<class 'gluon.html.STRONG'>"
p273
sS'COL'
p274
S"<class 'gluon.html.COL'>"
p275
sS'service'
p276
S'<gluon.tools.Service object>'
p277
sS'SCRIPT'
p278
S"<class 'gluon.html.SCRIPT'>"
p279
sS'TABLE'
p280
S"<class 'gluon.html.TABLE'>"
p281
sS'IS_IPV4'
p282
S"<class 'gluon.validators.IS_IPV4'>"
p283
sS'IS_LENGTH'
p284
S"<class 'gluon.validators.IS_LENGTH'>"
p285
sS'IS_IPV6'
p286
S"<class 'gluon.validators.IS_IPV6'>"
p287
sS'XML'
p288
S"<class 'gluon.html.XML'>"
p289
sS'B'
S"<class 'gluon.html.B'>"
p290
sS'IMG'
p291
S"<class 'gluon.html.IMG'>"
p292
sS'SQLTABLE'
p293
S"<class 'gluon.sqlhtml.SQLTABLE'>"
p294
sS'IS_MATCH'
p295
S"<class 'gluon.validators.IS_MATCH'>"
p296
sS'IS_ALPHANUMERIC'
p297
S"<class 'gluon.validators.IS_ALPHANUMERIC'>"
p298
sS'SPAN'
p299
S"<class 'gluon.html.SPAN'>"
p300
sS'IS_JSON'
p301
S"<class 'gluon.validators.IS_JSON'>"
p302
sS'IS_IPADDRESS'
p303
S"<class 'gluon.validators.IS_IPADDRESS'>"
p304
sS'IS_SLUG'
p305
S"<class 'gluon.validators.IS_SLUG'>"
p306
sS'BEAUTIFY'
p307
S"<class 'gluon.html.BEAUTIFY'>"
p308
sS'META'
p309
S"<class 'gluon.html.META'>"
p310
sS'BUTTON'
p311
S"<class 'gluon.html.BUTTON'>"
p312
sS'IS_DATE'
p313
S"<class 'gluon.validators.IS_DATE'>"
p314
sS'IS_EMAIL'
p315
S"<class 'gluon.validators.IS_EMAIL'>"
p316
sS'IS_NOT_EMPTY'
p317
S"<class 'gluon.validators.IS_NOT_EMPTY'>"
p318
sS'IS_FLOAT_IN_RANGE'
p319
S"<class 'gluon.validators.IS_FLOAT_IN_RANGE'>"
p320
sS'TBODY'
p321
S"<class 'gluon.html.TBODY'>"
p322
sS'CAT'
p323
S"<class 'gluon.html.CAT'>"
p324
sS'Field'
p325
S"<class 'pydal.objects.Field'>"
p326
sS'IS_LIST_OF_EMAILS'
p327
S"<class 'gluon.validators.IS_LIST_OF_EMAILS'>"
p328
sS'DIV'
p329
S"<class 'gluon.html.DIV'>"
p330
sS'LEGEND'
p331
S"<class 'gluon.html.LEGEND'>"
p332
sS'COLGROUP'
p333
S"<class 'gluon.html.COLGROUP'>"
p334
sS'DAL'
p335
S"<class 'pydal.base.DAL'>"
p336
sS'ASSIGNJS'
p337
S'<function ASSIGNJS>'
p338
sS'TR'
p339
S"<class 'gluon.html.TR'>"
p340
sS'LI'
p341
S"<class 'gluon.html.LI'>"
p342
sS'TH'
p343
S"<class 'gluon.html.TH'>"
p344
sS'TD'
p345
S"<class 'gluon.html.TD'>"
p346
sS'PluginManager'
p347
S"<class 'gluon.tools.PluginManager'>"
p348
sS'IS_URL'
p349
S"<class 'gluon.validators.IS_URL'>"
p350
sS'A'
S"<class 'gluon.html.A'>"
p351
sS'HEAD'
p352
S"<class 'gluon.html.HEAD'>"
p353
sS'IS_DATETIME_IN_RANGE'
p354
S"<class 'gluon.validators.IS_DATETIME_IN_RANGE'>"
p355
sS'FORM'
p356
S"<class 'gluon.html.FORM'>"
p357
sS'I'
S"<class 'gluon.html.I'>"
p358
sS'IS_NOT_IN_DB'
p359
S"<class 'gluon.validators.IS_NOT_IN_DB'>"
p360
sS'discussion_id'
p361
S"'43d36180-619a-4df1-9e04-882d7d0d3ea2'"
p362
sg120
S"<Storage {'body': <cStringIO.StringO object at 0...045f11b8>, 'view': 'default/newdiscussion.html'}>"
p363
sS'THEAD'
p364
S"<class 'gluon.html.THEAD'>"
p365
sS'ANY_OF'
p366
S"<class 'gluon.validators.ANY_OF'>"
p367
sS'IS_NULL_OR'
p368
S"<class 'gluon.validators.IS_EMPTY_OR'>"
p369
sg56
S"<Storage {'_vars': None, 'function': 'newdiscuss...sitories/CMPS 183/web2py/applications/Discuss/'}>"
p370
sS'IS_EXPR'
p371
S"<class 'gluon.validators.IS_EXPR'>"
p372
sS'T'
S'<gluon.languages.translator object>'
p373
sS'IS_IN_SET'
p374
S"<class 'gluon.validators.IS_IN_SET'>"
p375
sS'IS_UPLOAD_FILENAME'
p376
S"<class 'gluon.validators.IS_UPLOAD_FILENAME'>"
p377
sS'TT'
p378
S"<class 'gluon.html.TT'>"
p379
sS'IS_DECIMAL_IN_RANGE'
p380
S"<class 'gluon.validators.IS_DECIMAL_IN_RANGE'>"
p381
sssS'traceback'
p382
S'Traceback (most recent call last):\n  File "/Users/Joshua/Git Repositories/CMPS 183/web2py/gluon/restricted.py", line 227, in restricted\n    exec ccode in environment\n  File "/Users/Joshua/Git Repositories/CMPS 183/web2py/applications/Discuss/views/default/newdiscussion.html", line 69, in <module>\n    {{=form.custom.begin}}\nNameError: name \'form\' is not defined\n'
p383
s.