(dp1
S'output'
p2
S"<type 'exceptions.ValueError'> invalid literal for long() with base 10: '739f9ad4-ffe0-45e4-9f7c-04c7b1e3b883'"
p3
sS'layer'
p4
S'/Users/Joshua/Git Repositories/CMPS 183/web2py/applications/Discuss/controllers/default.py'
p5
sS'code'
p6
S'# -*- coding: utf-8 -*-\n# this file is released under public domain and you can use without limitations\n\n#########################################################################\n## This is a sample controller\n## - index is the default action of any application\n## - user is required for authentication and authorization\n## - download is for downloading files uploaded in the db (does streaming)\n#########################################################################\n\nfrom gluon import utils as gluon_utils\nimport json\n\ndef index():\n    return dict()\n\ndef newdiscussion():\n    discussion_id = gluon_utils.web2py_uuid()\n    return dict(discussion_id=discussion_id)\n\ndef load_discussions():\n    discussions = db().select(db.discussions.ALL)\n    return response.json(list(discussions))\n\ndef load_single_discussion():\n    discussion = db(db.discussions.discussion_id == request.vars.discussion_id).select().first()\n    return response.json(discussion)\n\n@auth.requires_signature()\ndef add_discussion():\n    db.discussions.update_or_insert((db.discussions.discussion_id == request.vars.discussion_id),\n            discussion_id=request.vars.discussion_id,\n            discussion_name=request.vars.discussion_name.title(),\n            discussion_description=request.vars.discussion_description.capitalize(),\n            discussion_location=request.vars.discussion_location.title(),\n            banner_photo_url=request.vars.banner_photo_url,\n            discussion_last_updated=request.vars.discussion_last_updated,\n            discussion_pretty_updated=request.vars.discussion_pretty_updated\n            )\n    return "ok"\n\ndef discussion():\n    discussion_id = request.args(0)\n    record = db.membership(discussion=discussion_id, user_table=auth.user_id)\n    if not record:\n        is_member = "false"\n    else:\n        is_member = "true"\n    return locals()\n\ndef become_member():\n    db.membership.insert(discussion=request.vars.discussion_id, user=auth.user_id)\n    return "ok"\n\ndef user():\n    """\n    exposes:\n    http://..../[app]/default/user/login\n    http://..../[app]/default/user/logout\n    http://..../[app]/default/user/register\n    http://..../[app]/default/user/profile\n    http://..../[app]/default/user/retrieve_password\n    http://..../[app]/default/user/change_password\n    http://..../[app]/default/user/manage_users (requires membership in\n    http://..../[app]/default/user/bulk_register\n    use @auth.requires_login()\n        @auth.requires_membership(\'group name\')\n        @auth.requires_permission(\'read\',\'table name\',record_id)\n    to decorate functions that need access control\n    """\n    return dict(form=auth())\n\n\n@cache.action()\ndef download():\n    """\n    allows downloading of uploaded files\n    http://..../[app]/default/download/[filename]\n    """\n    return response.download(request, db)\n\n\ndef call():\n    """\n    exposes services. for example:\n    http://..../[app]/default/call/jsonrpc\n    decorate with @services.jsonrpc the functions to expose\n    supports xml, json, xmlrpc, jsonrpc, amfrpc, rss, csv\n    """\n    return service()\n\n\n\nresponse._vars=response._caller(discussion)\n'
p7
sS'snapshot'
p8
(dp9
sS'traceback'
p10
S'Traceback (most recent call last):\n  File "/Users/Joshua/Git Repositories/CMPS 183/web2py/gluon/restricted.py", line 227, in restricted\n    exec ccode in environment\n  File "/Users/Joshua/Git Repositories/CMPS 183/web2py/applications/Discuss/controllers/default.py", line 94, in <module>\n  File "/Users/Joshua/Git Repositories/CMPS 183/web2py/gluon/globals.py", line 412, in <lambda>\n    self._caller = lambda f: f()\n  File "/Users/Joshua/Git Repositories/CMPS 183/web2py/applications/Discuss/controllers/default.py", line 44, in discussion\n    record = db.membership(discussion=discussion_id, user_table=auth.user_id)\n  File "/Users/Joshua/Git Repositories/CMPS 183/web2py/gluon/packages/dal/pydal/objects.py", line 540, in __call__\n    return self._db(query).select(limitby=(0,1),for_update=for_update, orderby=orderby, orderby_on_limitby=False).first()\n  File "/Users/Joshua/Git Repositories/CMPS 183/web2py/gluon/packages/dal/pydal/objects.py", line 2002, in select\n    return adapter.select(self.query,fields,attributes)\n  File "/Users/Joshua/Git Repositories/CMPS 183/web2py/gluon/packages/dal/pydal/adapters/sqlite.py", line 122, in select\n    return super(SQLiteAdapter, self).select(query, fields, attributes)\n  File "/Users/Joshua/Git Repositories/CMPS 183/web2py/gluon/packages/dal/pydal/adapters/base.py", line 1273, in select\n    sql = self._select(query, fields, attributes)\n  File "/Users/Joshua/Git Repositories/CMPS 183/web2py/gluon/packages/dal/pydal/adapters/base.py", line 1160, in _select\n    sql_w = \' WHERE \' + self.expand(query) if query else \'\'\n  File "/Users/Joshua/Git Repositories/CMPS 183/web2py/gluon/packages/dal/pydal/adapters/base.py", line 945, in expand\n    rv = op(first, second, **optional_args)\n  File "/Users/Joshua/Git Repositories/CMPS 183/web2py/gluon/packages/dal/pydal/adapters/base.py", line 760, in AND\n    return \'(%s AND %s)\' % (self.expand(first), self.expand(second))\n  File "/Users/Joshua/Git Repositories/CMPS 183/web2py/gluon/packages/dal/pydal/adapters/base.py", line 945, in expand\n    rv = op(first, second, **optional_args)\n  File "/Users/Joshua/Git Repositories/CMPS 183/web2py/gluon/packages/dal/pydal/adapters/base.py", line 839, in EQ\n    self.expand(second, first.type))\n  File "/Users/Joshua/Git Repositories/CMPS 183/web2py/gluon/packages/dal/pydal/adapters/base.py", line 955, in expand\n    rv = self.represent(expression, field_type)\n  File "/Users/Joshua/Git Repositories/CMPS 183/web2py/gluon/packages/dal/pydal/adapters/base.py", line 1432, in represent\n    return str(long(obj))\nValueError: invalid literal for long() with base 10: \'739f9ad4-ffe0-45e4-9f7c-04c7b1e3b883\'\n'
p11
s.