(dp1
S'output'
p2
S'missing "pass" in view'
p3
sS'layer'
p4
S'ParserContainer'
p5
sS'code'
p6
S'response.write(\'<!DOCTYPE html>\\n\\n<head>\\n    <meta charset="utf-8">\\n    <!-- www.phpied.com/conditional-comments-block-downloads/ -->\\n    <!-- Always force latest IE rendering engine\\n         (even in intranet) & Chrome Frame\\n         Remove this if you use the .htaccess -->\\n    <meta http-equiv="X-UA-Compatible" content="IE=edge\', escape=False)\nresponse.write(not request.is_local and \',chrome=1\' or \'\')\nresponse.write(\'">\\n    <!--  Mobile Viewport Fix\\n          j.mp/mobileviewport & davidbcalhoun.com/2010/viewport-metatag\\n          device-width: Occupy full width of the screen in its current orientation\\n          initial-scale = 1.0 retains dimensions instead of zooming out if page height > device height\\n          user-scalable = yes allows the user to zoom in -->\\n    <meta name="viewport" content="width=device-width, initial-scale=1.0">\\n    <title>\', escape=False)\nresponse.write(response.title or request.application)\nresponse.write(\'</title>\\n    <!-- http://dev.w3.org/html5/markup/meta.name.html -->\\n    <meta name="application-name" content="\', escape=False)\nresponse.write(request.application)\nresponse.write(\'">\\n    <!-- Speaking of Google, don\\\'t forget to set your site up:\\n         http://google.com/webmasters -->\\n    <meta name="google-site-verification" content="">\\n    <!-- include stylesheets -->\\n    <link rel="stylesheet" href="\', escape=False)\nresponse.write(URL(\'static\',\'css/bootstrap.min.css\'))\nresponse.write(\'"/>\\n    <link rel="stylesheet" href="\', escape=False)\nresponse.write(URL(\'static\',\'css/bootstrap-theme.min.css\'))\nresponse.write(\'"/>\\n    <link rel="stylesheet" href="\', escape=False)\nresponse.write(URL(\'static\',\'css/web2py-bootstrap3.css\'))\nresponse.write(\'"/>\\n    <link rel="stylesheet" href="\', escape=False)\nresponse.write(URL(\'static\',\'css/myapp.css\'))\nresponse.write(\'"/>\\n    <link rel="stylesheet" href="\', escape=False)\nresponse.write(URL(\'static\', \'font-awesome-4.4.0/css/font-awesome.min.css\'))\nresponse.write(\'"/>\\n    <link rel="shortcut icon" href="\', escape=False)\nresponse.write(URL(\'static\',\'images/favicon.ico\'))\nresponse.write(\'" type="image/x-icon">\\n    <link rel="apple-touch-icon" href="\', escape=False)\nresponse.write(URL(\'static\',\'images/favicon.png\'))\nresponse.write(\'">\\n\\t<link href=\\\'https://fonts.googleapis.com/css?family=Lato:400,300,100,700,900,100italic,300italic,400italic,700italic,900italic|Open+Sans:400,300,600,700,800,300italic,400italic,600italic,700italic,800italic|Montserrat\\\' rel=\\\'stylesheet\\\' type=\\\'text/css\\\'>    <!-- All JavaScript at the bottom, except for Modernizr which enables\\n         HTML5 elements & feature detects -->\\n    <script src="\', escape=False)\nresponse.write(URL(\'static\',\'js/modernizr-2.8.3.min.js\'))\nresponse.write(\'"></script>\\n    <!--[if lt IE 9]>\\n        <script src="\', escape=False)\nresponse.write(URL(\'static\',\'js/respond-1.4.2.min.js\'))\nresponse.write(\'"></script>\\n        <![endif]-->\\n    <!-- Favicons -->\\n    \', escape=False)\nresponse.write(\'<script type="text/javascript"><!--\\n    // These variables are used by the web2py_ajax_init function in web2py_ajax.js (which is loaded below).\\n    var w2p_ajax_confirm_message = "\', escape=False)\nresponse.write(T(\'Are you sure you want to delete this object?\'))\nresponse.write(\'";\\n    var w2p_ajax_disable_with_message = "\', escape=False)\nresponse.write(T(\'Working...\'))\nresponse.write(\'";\\n    var w2p_ajax_date_format = "\', escape=False)\nresponse.write(T(\'%Y-%m-%d\'))\nresponse.write(\'";\\n    var w2p_ajax_datetime_format = "\', escape=False)\nresponse.write(T(\'%Y-%m-%d %H:%M:%S\'))\nresponse.write(\'";\\n    var ajax_error_500 = \\\'\', escape=False)\nresponse.write(T.M(\'An error occured, please [[reload %s]] the page\') % URL(args=request.args, vars=request.get_vars))\nresponse.write("\'\\n    //--></script>\\n", escape=False)\nresponse.files.insert(0,URL(\'static\',\'js/jquery.js\'))\nresponse.files.insert(1,URL(\'static\',\'css/calendar.css\'))\nresponse.files.insert(2,URL(\'static\',\'js/calendar.js\'))\nresponse.files.insert(3,URL(\'static\',\'js/web2py.js\'))\nresponse.include_meta()\nresponse.include_files()\nresponse.write(\'\\n\', escape=False)\nresponse.write(\' <!-- this includes jquery.js, calendar.js/.css and web2py.js -->\\n</head>\\n<body>\\n\\t<div id="index-target"></div>\\n\\t<!-- The javascript =============================== -->\\n    <script src="\', escape=False)\nresponse.write(URL(\'static\',\'js/bootstrap.min.js\'))\nresponse.write(\'"></script>\\n    <script src="\', escape=False)\nresponse.write(URL(\'static\',\'js/web2py-bootstrap3.js\'))\nresponse.write(\'"></script>\\n    <script src="\', escape=False)\nresponse.write(URL(\'static\', \'js/ractive.min.js\'))\nresponse.write(\'"></script>\\n</body>\\n\\n<script id="index-template" type="text/ractive">\\n\\t<nav id="index-nav" class="flex-row space-between full-width center-aligned">\\n\\t\\t\', escape=False)\nresponse.write(A(\'Discuss\', _class=\'title\', _href=URL(\'default\', \'index\')))\nresponse.write(\'\\n\\t\\t<div class="nav-buttons flex-row space-around">\\n\\t\\t\', escape=False)\nif not auth.is_logged_in():\n    response.write(\'\\n\\t\\t\\t\', escape=False)\n    response.write(A(\'Get Started\', _class=\'btn\', _id=\'signup-button\', _href=URL(\'default\', \'user\', args=[\'register\'], vars=dict(_next=URL(args=request.args, vars=request.vars)))))\n    response.write(\'\\n            \', escape=False)\n    response.write(A(\'Sign In\', _class=\'btn\', _id=\'signin-button\', _href=URL(\'default\', \'user\', args=[\'login\'], vars=dict(_next=URL(args=request.args, vars=request.vars)))))\n    response.write(\'\\n        \', escape=False)\n    pass\nresponse.write(\'\\n        \', escape=False)\nif auth.is_logged_in():\n    response.write(\'\\n            \', escape=False)\n    response.write(A(\'My Profile\', _class=\'btn\', _id=\'myprofile-button\', _href=URL(\'default\', \'user\', args=[\'register\'], vars=dict(_next=URL(args=request.args, vars=request.vars)))))\n    response.write(\'\\n            \', escape=False)\n    response.write(A(\'Sign Out\', _class=\'btn\', _id=\'signout-button\', _href=URL(\'default\', \'user\', args=[\'logout\'], vars=dict(_next=URL(args=request.args, vars=request.vars)))))\n    response.write(\'\\n        \', escape=False)\n    pass\nresponse.write(\'\\n        </div>\\n\\t</nav>\\n\\t<main>\\n\\t\\t<div class="banner-photo">\\n\\t\\t\\t<img src="http://becgreen.ca/wp-content/uploads/2015/11/o-BIKE-CITY-facebook.jpg" alt="Bicycle Commuter">\\n\\t\\t\\t<div id="index-greeting" class="banner-content">\\n\\t\\t\\t\\t<div id="index-hello">Hello\', escape=False)\nif not auth.is_logged_in():\n    response.write(\', \', escape=False)\n    response.write(auth.user.first_name)\n    response.write(\'</div>\\n\\t\\t\\t\\t<div class="banner-text">Your friends are already here, you just haven\\\'t met them yet.</div>\\n\\t\\t\\t</div>\\n\\t\\t</div>\\n\\t\\t<div id="search-container" class="flex-row space-between center-aligned">\\n\\t\\t\\t<input type="text" class="search-input" id="search-input-index" name="search-input"  placeholder="All Discussions" maxlength="30"/>\\n\\t\\t\\t<button class="btn" id="search-button" on-click="search-button">Search</button>\\n\\t\\t</div>\\n\\t\\t<div id="discussions-container" class="flex-row center-aligned flex-wrap space-between">\\n\\t\\t\\t<div class="discussion-thumb">\\n\\t\\t\\t\\t<img src="http://ryersongcm.ca/sites/default/files/_FAJ1679_0.jpg" alt="Bicycle Commuter">\\n\\t\\t\\t\\t<h2>Macs</h2>\\n\\t\\t\\t</div>\\n\\t\\t\\t<div class="discussion-thumb">\\n\\t\\t\\t\\t<img src="http://ryersongcm.ca/sites/default/files/_FAJ1679_0.jpg" alt="Bicycle Commuter">\\n\\t\\t\\t\\t<h2>Macs</h2>\\n\\t\\t\\t</div>\\n\\t\\t\\t<div class="discussion-thumb">\\n\\t\\t\\t\\t<img src="http://ryersongcm.ca/sites/default/files/_FAJ1679_0.jpg" alt="Bicycle Commuter">\\n\\t\\t\\t\\t<h2>Macs</h2>\\n\\t\\t\\t</div>\\n\\t\\t\\t<div class="discussion-thumb">\\n\\t\\t\\t\\t<img src="http://ryersongcm.ca/sites/default/files/_FAJ1679_0.jpg" alt="Bicycle Commuter">\\n\\t\\t\\t\\t<h2>Macs</h2>\\n\\t\\t\\t</div>\\n\\t\\t\\t<div class="discussion-thumb">\\n\\t\\t\\t\\t<img src="http://ryersongcm.ca/sites/default/files/_FAJ1679_0.jpg" alt="Bicycle Commuter">\\n\\t\\t\\t\\t<h2>Macs</h2>\\n\\t\\t\\t</div>\\n\\t\\t\\t<div class="discussion-thumb">\\n\\t\\t\\t\\t<img src="http://ryersongcm.ca/sites/default/files/_FAJ1679_0.jpg" alt="Bicycle Commuter">\\n\\t\\t\\t\\t<h2>Macs</h2>\\n\\t\\t\\t</div>\\n\\t\\t\\t<div class="discussion-thumb">\\n\\t\\t\\t\\t<img src="http://ryersongcm.ca/sites/default/files/_FAJ1679_0.jpg" alt="Bicycle Commuter">\\n\\t\\t\\t\\t<h2>Macs</h2>\\n\\t\\t\\t</div>\\n\\t\\t</div>\\n\\t</main>\\n</script>\\n\\n<script>\\n\\t$(function() {\\n\\t\\t// Ractive object\\n\\t\\tvar BODY = new Ractive({\\n\\t\\t\\tel: \\\'#index-target\\\',\\n\\t\\t\\ttemplate: \\\'#index-template\\\',\\n\\t\\t\\tdelimiters: [\\\'{%\\\', \\\'%}\\\'],\\n\\t\\t\\ttripleDelimiters: [\\\'{%%\\\', \\\'%%}\\\'],\\n\\t\\t\\tdata: {\\n\\t\\t\\t\\t//posts_list: [],\\n\\t\\t\\t}\\n\\t\\t});\\n\\n\\n\\t});\\n</script>\\n\\n</html>\\n\', escape=False)'
p7
sS'snapshot'
p8
(dp9
S'exception'
p10
(dp11
S'__module__'
p12
S"'gluon.rocket'"
p13
sS'__getslice__'
p14
S"<method-wrapper '__getslice__' of SocketTimeout object>"
p15
sS'__str__'
p16
S"<method-wrapper '__str__' of SocketTimeout object>"
p17
sS'__reduce__'
p18
S'<built-in method __reduce__ of SocketTimeout object>'
p19
sS'__dict__'
p20
S'{}'
p21
sS'__sizeof__'
p22
S'<built-in method __sizeof__ of SocketTimeout object>'
p23
sS'__weakref__'
p24
S'None'
p25
sS'__init__'
p26
S"<method-wrapper '__init__' of SocketTimeout object>"
p27
sS'__setattr__'
p28
S"<method-wrapper '__setattr__' of SocketTimeout object>"
p29
sS'__reduce_ex__'
p30
S'<built-in method __reduce_ex__ of SocketTimeout object>'
p31
sS'__new__'
p32
S'<built-in method __new__ of type object>'
p33
sS'__format__'
p34
S'<built-in method __format__ of SocketTimeout object>'
p35
sS'__class__'
p36
S"<class 'gluon.rocket.SocketTimeout'>"
p37
sS'__doc__'
p38
S"'Exception for when a socket times out between requests.'"
p39
sS'__getitem__'
p40
S"<method-wrapper '__getitem__' of SocketTimeout object>"
p41
sS'__setstate__'
p42
S'<built-in method __setstate__ of SocketTimeout object>'
p43
sS'__getattribute__'
p44
S"<method-wrapper '__getattribute__' of SocketTimeout object>"
p45
sS'args'
p46
S"('Socket timed out before request.',)"
p47
sS'__subclasshook__'
p48
S'<built-in method __subclasshook__ of type object>'
p49
sS'__unicode__'
p50
S'<built-in method __unicode__ of SocketTimeout object>'
p51
sS'__delattr__'
p52
S"<method-wrapper '__delattr__' of SocketTimeout object>"
p53
sS'__repr__'
p54
S"<method-wrapper '__repr__' of SocketTimeout object>"
p55
sS'__hash__'
p56
S"<method-wrapper '__hash__' of SocketTimeout object>"
p57
ssS'evalue'
p58
S'Socket timed out before request.'
p59
sS'frames'
p60
(lp61
(dp62
S'file'
p63
S'/Users/Joshua/Git Repositories/CMPS 183/web2py/gluon/rocket.py'
p64
sS'dump'
p65
(dp66
S'self'
p67
S'<WSGIWorker(Thread-11, started daemon 123145345519616)>'
p68
sS'conn'
p69
S'<gluon.rocket.Connection object>'
p70
sS'self.run_app'
p71
S'<bound method WSGIWorker.run_app of <WSGIWorker(Thread-11, started daemon 123145345519616)>>'
p72
ssS'lnum'
p73
I1337
sS'lines'
p74
(dp75
I1332
S'            # Enter connection serve loop'
p76
sI1333
S'            while True:'
p77
sI1334
S'                if __debug__:'
p78
sI1335
S"                    self.err_log.debug('Serving a request')"
p79
sI1336
S'                try:'
p80
sI1337
S'                    self.run_app(conn)'
p81
sI1338
S'                except:'
p82
sI1339
S'                    exc = sys.exc_info()'
p83
sI1340
S'                    handled = self._handleError(*exc)'
p84
sI1341
S'                    if handled:'
p85
ssS'call'
p86
S'(self=<WSGIWorker(Thread-11, started daemon 123145345519616)>)'
p87
sS'func'
p88
S'run'
p89
sa(dp90
g63
S'/Users/Joshua/Git Repositories/CMPS 183/web2py/gluon/rocket.py'
p91
sg65
(dp92
S'self'
p93
S'<WSGIWorker(Thread-11, started daemon 123145345519616)>'
p94
sS'self.environ'
p95
S"{'HTTP_ACCEPT': 'text/html,application/xhtml+xml,application/xml;q=0.9,image/webp,*/*;q=0.8', 'HTTP_ACCEPT_ENCODING': 'gzip, deflate, sdch', 'HTTP_ACCEPT_LANGUAGE': 'en-US,en;q=0.8', 'HTTP_CACHE_CONTROL': 'max-age=0', 'HTTP_CONNECTION': 'keep-alive', 'HTTP_COOKIE': 'session_id_myapp=127.0.0.1-4618588b-1260-4b0f-bb...ss=127.0.0.1-ac0ed869-0ae6-4b25-9289-1e88fef7bfb1', 'HTTP_HOST': '127.0.0.1:8900', 'HTTP_REFERER': 'http://127.0.0.1:8900/Discuss/default/user/regis...ogin%3F_next%3D%252FDiscuss%252Fdefault%252Findex', 'HTTP_UPGRADE_INSECURE_REQUESTS': '1', 'HTTP_USER_AGENT': 'Mozilla/5.0 (Macintosh; Intel Mac OS X 10_11_1) ...ML, like Gecko) Chrome/46.0.2490.86 Safari/537.36', ...}"
p96
sS'sock_file'
p97
S'<socket._fileobject object>'
p98
sS'environ'
p99
S'undefined'
p100
sS'self.build_environ'
p101
S'<bound method WSGIWorker.build_environ of <WSGIWorker(Thread-11, started daemon 123145345519616)>>'
p102
sS'conn'
p103
S'<gluon.rocket.Connection object>'
p104
ssg73
I1830
sg74
(dp105
I1825
S'        else:'
p106
sI1826
S'            sock_file = conn.makefile(BUF_SIZE)'
p107
sI1827
S''
sI1828
S'        try:'
p108
sI1829
S'            # Read the headers and build our WSGI environment'
p109
sI1830
S'            self.environ = environ = self.build_environ(sock_file, conn)'
p110
sI1831
S''
sI1832
S'            # Handle 100 Continue'
p111
sI1833
S"            if environ.get('HTTP_EXPECT', '') == '100-continue':"
p112
sI1834
S"                res = environ['SERVER_PROTOCOL'] + ' 100 Continue\\r\\n\\r\\n'"
p113
ssg86
S'(self=<WSGIWorker(Thread-11, started daemon 123145345519616)>, conn=<gluon.rocket.Connection object>)'
p114
sg88
S'run_app'
p115
sa(dp116
g63
S'/Users/Joshua/Git Repositories/CMPS 183/web2py/gluon/rocket.py'
p117
sg65
(dp118
S'sock_file'
p119
S'<socket._fileobject object>'
p120
sS'self.read_request_line'
p121
S'<bound method WSGIWorker.read_request_line of <W...rker(Thread-11, started daemon 123145345519616)>>'
p122
sS'self'
p123
S'<WSGIWorker(Thread-11, started daemon 123145345519616)>'
p124
sS'request'
p125
g100
ssg73
I1650
sg74
(dp126
I1645
S'                                      "wsgiorg.futures": executor.futures})'
p127
sI1646
S''
sI1647
S'    def build_environ(self, sock_file, conn):'
p128
sI1648
S'        """ Build the execution environment. """'
p129
sI1649
S'        # Grab the request line'
p130
sI1650
S'        request = self.read_request_line(sock_file)'
p131
sI1651
S''
sI1652
S'        # Copy the Base Environment'
p132
sI1653
S'        environ = self.base_environ.copy()'
p133
sI1654
S''
ssg86
S'(self=<WSGIWorker(Thread-11, started daemon 123145345519616)>, sock_file=<socket._fileobject object>, conn=<gluon.rocket.Connection object>)'
p134
sg88
S'build_environ'
p135
sa(dp136
g63
S'/Users/Joshua/Git Repositories/CMPS 183/web2py/gluon/rocket.py'
p137
sg65
(dp138
S'global SocketTimeout'
p139
S"<class 'gluon.rocket.SocketTimeout'>"
p140
ssg73
I1401
sg74
(dp141
I1396
S''
sI1397
S'                d = sock_file.readline()'
p142
sI1398
S'                if PY3K:'
p143
sI1399
S"                    d = d.decode('ISO-8859-1')"
p144
sI1400
S'        except socket.timeout:'
p145
sI1401
S"            raise SocketTimeout('Socket timed out before request.')"
p146
sI1402
S'        except TypeError:'
p147
sI1403
S'            raise SocketClosed('
p148
sI1404
S"                'SSL bug caused closure of socket.  See '"
p149
sI1405
S'                \'"https://groups.google.com/d/topic/web2py/P_Gw0JxWzCs".\')'
p150
ssg86
S'(self=<WSGIWorker(Thread-11, started daemon 123145345519616)>, sock_file=<socket._fileobject object>)'
p151
sg88
S'read_request_line'
p152
sasS'pyver'
p153
S'Python 2.7.10: /usr/bin/python (prefix: /System/Library/Frameworks/Python.framework/Versions/2.7)'
p154
sS'etype'
p155
S"<class 'gluon.rocket.SocketTimeout'>"
p156
sS'date'
p157
S'Mon Dec  7 18:39:03 2015'
p158
sS'locals'
p159
(dp160
S'sock_file'
p161
S'<socket._fileobject object>'
p162
sS'self'
p163
S'<WSGIWorker(Thread-11, started daemon 123145345519616)>'
p164
sssS'traceback'
p165
S'Traceback (most recent call last):\n  File "/Users/Joshua/Git Repositories/CMPS 183/web2py/gluon/rocket.py", line 1337, in run\n    self.run_app(conn)\n  File "/Users/Joshua/Git Repositories/CMPS 183/web2py/gluon/rocket.py", line 1830, in run_app\n    self.environ = environ = self.build_environ(sock_file, conn)\n  File "/Users/Joshua/Git Repositories/CMPS 183/web2py/gluon/rocket.py", line 1650, in build_environ\n    request = self.read_request_line(sock_file)\n  File "/Users/Joshua/Git Repositories/CMPS 183/web2py/gluon/rocket.py", line 1401, in read_request_line\n    raise SocketTimeout(\'Socket timed out before request.\')\nSocketTimeout: Socket timed out before request.\n'
p166
s.